SF:/home/g4/_prj/weaveback/crates/weaveback-api/src/apply_back.rs
FN:77,_RNvMs2_NtCsaY2CvWUtqiY_13weaveback_api10apply_backNtB5_11PatchSource8src_file
FN:217,_RNvNtCsaY2CvWUtqiY_13weaveback_api10apply_back11splice_line
FN:1164,_RNvNtCsaY2CvWUtqiY_13weaveback_api10apply_back12strip_indent
FN:447,_RNvNtCsaY2CvWUtqiY_13weaveback_api10apply_back14rank_candidate
FN:1168,_RNvNtCsaY2CvWUtqiY_13weaveback_api10apply_back14run_apply_back
FN:174,_RNvNtCsaY2CvWUtqiY_13weaveback_api10apply_back15fuzzy_find_line
FN:198,_RNvNtCsaY2CvWUtqiY_13weaveback_api10apply_back16verify_candidate
FN:89,_RNvNtCsaY2CvWUtqiY_13weaveback_api10apply_back17patch_source_rank
FN:479,_RNvNtCsaY2CvWUtqiY_13weaveback_api10apply_back19chunk_context_bonus
FN:863,_RNvNtCsaY2CvWUtqiY_13weaveback_api10apply_back19lsp_definition_hint
FN:499,_RNvNtCsaY2CvWUtqiY_13weaveback_api10apply_back19resolve_noweb_entry
FN:225,_RNvNtCsaY2CvWUtqiY_13weaveback_api10apply_back19token_overlap_score
FN:243,_RNvNtCsaY2CvWUtqiY_13weaveback_api10apply_back20differing_token_pair
FN:685,_RNvNtCsaY2CvWUtqiY_13weaveback_api10apply_back20resolve_patch_source
FN:999,_RNvNtCsaY2CvWUtqiY_13weaveback_api10apply_back21apply_patches_to_file
FN:464,_RNvNtCsaY2CvWUtqiY_13weaveback_api10apply_back21choose_best_candidate
FN:100,_RNvNtCsaY2CvWUtqiY_13weaveback_api10apply_back21patch_source_location
FN:342,_RNvNtCsaY2CvWUtqiY_13weaveback_api10apply_back22attempt_macro_body_fix
FN:414,_RNvNtCsaY2CvWUtqiY_13weaveback_api10apply_back22candidate_line_indices
FN:280,_RNvNtCsaY2CvWUtqiY_13weaveback_api10apply_back23attempt_macro_arg_patch
FN:786,_RNvNtCsaY2CvWUtqiY_13weaveback_api10apply_back25resolve_best_patch_source
FN:516,_RNvNtCsaY2CvWUtqiY_13weaveback_api10apply_back26search_macro_arg_candidate
FN:567,_RNvNtCsaY2CvWUtqiY_13weaveback_api10apply_back27search_macro_body_candidate
FN:619,_RNvNtCsaY2CvWUtqiY_13weaveback_api10apply_back27search_macro_call_candidate
FN:908,_RNvNtCsaY2CvWUtqiY_13weaveback_api10apply_back8do_patch
FN:226,_RNvNvNtCsaY2CvWUtqiY_13weaveback_api10apply_back19token_overlap_score6tokens
FN:244,_RNvNvNtCsaY2CvWUtqiY_13weaveback_api10apply_back20differing_token_pair6tokens
FN:23,_RNvXNtCsaY2CvWUtqiY_13weaveback_api10apply_backNtB2_14ApplyBackErrorINtNtCs9yMf5VoQcqS_4core7convert4FromNtNtCs15Atq6sPk6z_16weaveback_tangle2db7DbErrorE4from
FN:29,_RNvXs0_NtCsaY2CvWUtqiY_13weaveback_api10apply_backNtB5_14ApplyBackErrorINtNtCs9yMf5VoQcqS_4core7convert4FromNtNtB7_6lookup11LookupErrorE4from
FN:33,_RNvXs1_NtCsaY2CvWUtqiY_13weaveback_api10apply_backNtB5_14ApplyBackErrorNtNtCs9yMf5VoQcqS_4core3fmt7Display3fmt
FN:26,_RNvXs_NtCsaY2CvWUtqiY_13weaveback_api10apply_backNtB4_14ApplyBackErrorINtNtCs9yMf5VoQcqS_4core7convert4FromNtNtNtCshbt5Cx3aOt7_3std2io5error5ErrorE4from
FN:1195,_RNCNCNvNtCsaY2CvWUtqiY_13weaveback_api10apply_back14run_apply_back00B7_
FN:1204,_RNCNCNvNtCsaY2CvWUtqiY_13weaveback_api10apply_back14run_apply_backs0_00B7_
FN:758,_RNCNCNvNtCsaY2CvWUtqiY_13weaveback_api10apply_back20resolve_patch_sources1_00B7_
FN:1038,_RNCNCNvNtCsaY2CvWUtqiY_13weaveback_api10apply_back21apply_patches_to_files_00B7_
FN:469,_RNCNCNvNtCsaY2CvWUtqiY_13weaveback_api10apply_back21choose_best_candidate00B7_
FN:218,_RNCNvNtCsaY2CvWUtqiY_13weaveback_api10apply_back11splice_line0B5_
FN:1195,_RNCNvNtCsaY2CvWUtqiY_13weaveback_api10apply_back14run_apply_back0B5_
FN:1204,_RNCNvNtCsaY2CvWUtqiY_13weaveback_api10apply_back14run_apply_backs0_0B5_
FN:1265,_RNCNvNtCsaY2CvWUtqiY_13weaveback_api10apply_back14run_apply_backs2_0B5_
FN:1334,_RNCNvNtCsaY2CvWUtqiY_13weaveback_api10apply_back14run_apply_backs3_0B5_
FN:1337,_RNCNvNtCsaY2CvWUtqiY_13weaveback_api10apply_back14run_apply_backs4_0B5_
FN:1338,_RNCNvNtCsaY2CvWUtqiY_13weaveback_api10apply_back14run_apply_backs5_0B5_
FN:1340,_RNCNvNtCsaY2CvWUtqiY_13weaveback_api10apply_back14run_apply_backs6_0B5_
FN:1341,_RNCNvNtCsaY2CvWUtqiY_13weaveback_api10apply_back14run_apply_backs7_0B5_
FN:1373,_RNCNvNtCsaY2CvWUtqiY_13weaveback_api10apply_back14run_apply_backs8_0B5_
FN:1376,_RNCNvNtCsaY2CvWUtqiY_13weaveback_api10apply_back14run_apply_backs9_0B5_
FN:1196,_RNCNvNtCsaY2CvWUtqiY_13weaveback_api10apply_back14run_apply_backs_0B5_
FN:1377,_RNCNvNtCsaY2CvWUtqiY_13weaveback_api10apply_back14run_apply_backsa_0B5_
FN:1380,_RNCNvNtCsaY2CvWUtqiY_13weaveback_api10apply_back14run_apply_backsb_0B5_
FN:1417,_RNCNvNtCsaY2CvWUtqiY_13weaveback_api10apply_back14run_apply_backsc_0B5_
FN:1449,_RNCNvNtCsaY2CvWUtqiY_13weaveback_api10apply_back14run_apply_backsd_0B5_
FN:488,_RNCNvNtCsaY2CvWUtqiY_13weaveback_api10apply_back19chunk_context_bonus0B5_
FN:236,_RNCNvNtCsaY2CvWUtqiY_13weaveback_api10apply_back19token_overlap_score0B5_
FN:259,_RNCNvNtCsaY2CvWUtqiY_13weaveback_api10apply_back20differing_token_pair0B5_
FN:706,_RNCNvNtCsaY2CvWUtqiY_13weaveback_api10apply_back20resolve_patch_source0B5_
FN:755,_RNCNvNtCsaY2CvWUtqiY_13weaveback_api10apply_back20resolve_patch_sources0_0B5_
FN:756,_RNCNvNtCsaY2CvWUtqiY_13weaveback_api10apply_back20resolve_patch_sources1_0B5_
FN:761,_RNCNvNtCsaY2CvWUtqiY_13weaveback_api10apply_back20resolve_patch_sources2_0B5_
FN:771,_RNCNvNtCsaY2CvWUtqiY_13weaveback_api10apply_back20resolve_patch_sources3_0B5_
FN:772,_RNCNvNtCsaY2CvWUtqiY_13weaveback_api10apply_back20resolve_patch_sources4_0B5_
FN:773,_RNCNvNtCsaY2CvWUtqiY_13weaveback_api10apply_back20resolve_patch_sources5_0B5_
FN:748,_RNCNvNtCsaY2CvWUtqiY_13weaveback_api10apply_back20resolve_patch_sources_0B5_
FN:1009,_RNCNvNtCsaY2CvWUtqiY_13weaveback_api10apply_back21apply_patches_to_file0B5_
FN:1038,_RNCNvNtCsaY2CvWUtqiY_13weaveback_api10apply_back21apply_patches_to_files_0B5_
FN:467,_RNCNvNtCsaY2CvWUtqiY_13weaveback_api10apply_back21choose_best_candidate0B5_
FN:472,_RNCNvNtCsaY2CvWUtqiY_13weaveback_api10apply_back21choose_best_candidates_0B5_
FN:421,_RNCNvNtCsaY2CvWUtqiY_13weaveback_api10apply_back22candidate_line_indices0B5_
FN:303,_RNCNvNtCsaY2CvWUtqiY_13weaveback_api10apply_back23attempt_macro_arg_patch0B5_
FN:307,_RNCNvNtCsaY2CvWUtqiY_13weaveback_api10apply_back23attempt_macro_arg_patchs_0B5_
FN:803,_RNCNvNtCsaY2CvWUtqiY_13weaveback_api10apply_back25resolve_best_patch_source0B5_
FN:860,_RNCNvNtCsaY2CvWUtqiY_13weaveback_api10apply_back25resolve_best_patch_sources_0B5_
FN:653,_RNCNvNtCsaY2CvWUtqiY_13weaveback_api10apply_back27search_macro_call_candidate0B5_
FN:655,_RNCNvNtCsaY2CvWUtqiY_13weaveback_api10apply_back27search_macro_call_candidates_0B5_
FN:946,_RNCNvNtCsaY2CvWUtqiY_13weaveback_api10apply_back8do_patch0B5_
FN:968,_RNCNvNtCsaY2CvWUtqiY_13weaveback_api10apply_back8do_patchs_0B5_
FN:227,_RNCNvNvNtCsaY2CvWUtqiY_13weaveback_api10apply_back19token_overlap_score6tokens0B7_
FN:229,_RNCNvNvNtCsaY2CvWUtqiY_13weaveback_api10apply_back19token_overlap_score6tokenss0_0B7_
FN:228,_RNCNvNvNtCsaY2CvWUtqiY_13weaveback_api10apply_back19token_overlap_score6tokenss_0B7_
FN:245,_RNCNvNvNtCsaY2CvWUtqiY_13weaveback_api10apply_back20differing_token_pair6tokens0B7_
FN:246,_RNCNvNvNtCsaY2CvWUtqiY_13weaveback_api10apply_back20differing_token_pair6tokenss_0B7_
FN:78,_RNvMs2_NtCs9svORWNbXMv_13weaveback_api10apply_backNtB5_11PatchSource8src_file
FN:218,_RNvNtCs9svORWNbXMv_13weaveback_api10apply_back11splice_line
FN:1165,_RNvNtCs9svORWNbXMv_13weaveback_api10apply_back12strip_indent
FN:448,_RNvNtCs9svORWNbXMv_13weaveback_api10apply_back14rank_candidate
FN:1169,_RNvNtCs9svORWNbXMv_13weaveback_api10apply_back14run_apply_back
FN:175,_RNvNtCs9svORWNbXMv_13weaveback_api10apply_back15fuzzy_find_line
FN:199,_RNvNtCs9svORWNbXMv_13weaveback_api10apply_back16verify_candidate
FN:90,_RNvNtCs9svORWNbXMv_13weaveback_api10apply_back17patch_source_rank
FN:480,_RNvNtCs9svORWNbXMv_13weaveback_api10apply_back19chunk_context_bonus
FN:864,_RNvNtCs9svORWNbXMv_13weaveback_api10apply_back19lsp_definition_hint
FN:500,_RNvNtCs9svORWNbXMv_13weaveback_api10apply_back19resolve_noweb_entry
FN:226,_RNvNtCs9svORWNbXMv_13weaveback_api10apply_back19token_overlap_score
FN:244,_RNvNtCs9svORWNbXMv_13weaveback_api10apply_back20differing_token_pair
FN:686,_RNvNtCs9svORWNbXMv_13weaveback_api10apply_back20resolve_patch_source
FN:1000,_RNvNtCs9svORWNbXMv_13weaveback_api10apply_back21apply_patches_to_file
FN:465,_RNvNtCs9svORWNbXMv_13weaveback_api10apply_back21choose_best_candidate
FN:101,_RNvNtCs9svORWNbXMv_13weaveback_api10apply_back21patch_source_location
FN:343,_RNvNtCs9svORWNbXMv_13weaveback_api10apply_back22attempt_macro_body_fix
FN:415,_RNvNtCs9svORWNbXMv_13weaveback_api10apply_back22candidate_line_indices
FN:281,_RNvNtCs9svORWNbXMv_13weaveback_api10apply_back23attempt_macro_arg_patch
FN:787,_RNvNtCs9svORWNbXMv_13weaveback_api10apply_back25resolve_best_patch_source
FN:517,_RNvNtCs9svORWNbXMv_13weaveback_api10apply_back26search_macro_arg_candidate
FN:568,_RNvNtCs9svORWNbXMv_13weaveback_api10apply_back27search_macro_body_candidate
FN:620,_RNvNtCs9svORWNbXMv_13weaveback_api10apply_back27search_macro_call_candidate
FN:909,_RNvNtCs9svORWNbXMv_13weaveback_api10apply_back8do_patch
FN:227,_RNvNvNtCs9svORWNbXMv_13weaveback_api10apply_back19token_overlap_score6tokens
FN:245,_RNvNvNtCs9svORWNbXMv_13weaveback_api10apply_back20differing_token_pair6tokens
FN:23,_RNvXNtCs9svORWNbXMv_13weaveback_api10apply_backNtB2_14ApplyBackErrorINtNtCs9yMf5VoQcqS_4core7convert4FromNtNtCsUfOgH5zVts_16weaveback_tangle2db7DbErrorE4from
FN:29,_RNvXs0_NtCs9svORWNbXMv_13weaveback_api10apply_backNtB5_14ApplyBackErrorINtNtCs9yMf5VoQcqS_4core7convert4FromNtNtB7_6lookup11LookupErrorE4from
FN:33,_RNvXs1_NtCs9svORWNbXMv_13weaveback_api10apply_backNtB5_14ApplyBackErrorNtNtCs9yMf5VoQcqS_4core3fmt7Display3fmt
FN:26,_RNvXs_NtCs9svORWNbXMv_13weaveback_api10apply_backNtB4_14ApplyBackErrorINtNtCs9yMf5VoQcqS_4core7convert4FromNtNtNtCshbt5Cx3aOt7_3std2io5error5ErrorE4from
FN:1916,_RNvXs_NtNtCs9svORWNbXMv_13weaveback_api10apply_back5testsNtB4_13TestWorkspaceNtNtNtCs9yMf5VoQcqS_4core3ops4drop4Drop4drop
FN:1904,_RNvMNtNtCs9svORWNbXMv_13weaveback_api10apply_back5testsNtB2_13TestWorkspace10write_file
FN:1894,_RNvMNtNtCs9svORWNbXMv_13weaveback_api10apply_back5testsNtB2_13TestWorkspace3new
FN:1911,_RNvMNtNtCs9svORWNbXMv_13weaveback_api10apply_back5testsNtB2_13TestWorkspace7open_db
FN:1510,_RNvNtNtCs9svORWNbXMv_13weaveback_api10apply_back5tests5lines
FN:1709,_RNvNtNtCs9svORWNbXMv_13weaveback_api10apply_back5testss_27strip_indent_removes_prefix
FN:2601,_RNvNtNtCs9svORWNbXMv_13weaveback_api10apply_back5testss_27test_do_patch_fuzzy_success
FN:1750,_RNvNtNtCs9svORWNbXMv_13weaveback_api10apply_back5testss_28do_patch_applies_exact_match
FN:2744,_RNvNtNtCs9svORWNbXMv_13weaveback_api10apply_back5testss_29test_do_patch_already_applied
FN:2388,_RNvNtNtCs9svORWNbXMv_13weaveback_api10apply_back5testss_30test_run_apply_back_macro_edit
FN:2268,_RNvNtNtCs9svORWNbXMv_13weaveback_api10apply_back5testss_31run_apply_back_gen_dir_fallback
FN:1765,_RNvNtNtCs9svORWNbXMv_13weaveback_api10apply_back5testss_32do_patch_detects_already_applied
FN:1938,_RNvNtNtCs9svORWNbXMv_13weaveback_api10apply_back5testss_32run_apply_back_no_modified_files
FN:1546,_RNvNtNtCs9svORWNbXMv_13weaveback_api10apply_back5testss_33splice_line_replaces_indexed_line
FN:1517,_RNvNtNtCs9svORWNbXMv_13weaveback_api10apply_back5testss_34fuzzy_find_line_finds_unique_match
FN:2506,_RNvNtNtCs9svORWNbXMv_13weaveback_api10apply_back5testss_34run_apply_back_bulk_reconciliation
FN:1672,_RNvNtNtCs9svORWNbXMv_13weaveback_api10apply_back5testss_35apply_back_error_display_io_variant
FN:2342,_RNvNtNtCs9svORWNbXMv_13weaveback_api10apply_back5testss_35test_run_apply_back_success_literal
FN:2576,_RNvNtNtCs9svORWNbXMv_13weaveback_api10apply_back5testss_36run_apply_back_with_restricted_files
FN:2760,_RNvNtNtCs9svORWNbXMv_13weaveback_api10apply_back5testss_37test_do_patch_conflict_reports_actual
FN:1792,_RNvNtNtCs9svORWNbXMv_13weaveback_api10apply_back5testss_38do_patch_dry_run_does_not_modify_lines
FN:2313,_RNvNtNtCs9svORWNbXMv_13weaveback_api10apply_back5testss_38run_apply_back_diff_delete_is_detected
FN:1958,_RNvNtNtCs9svORWNbXMv_13weaveback_api10apply_back5testss_38run_apply_back_skips_missing_gen_files
FN:1553,_RNvNtNtCs9svORWNbXMv_13weaveback_api10apply_back5testss_38splice_line_preserves_trailing_newline
FN:1778,_RNvNtNtCs9svORWNbXMv_13weaveback_api10apply_back5testss_39do_patch_records_conflict_when_no_match
FN:1691,_RNvNtNtCs9svORWNbXMv_13weaveback_api10apply_back5testss_39patch_source_rank_unpatchable_is_lowest
FN:1922,_RNvNtNtCs9svORWNbXMv_13weaveback_api10apply_back5testss_39run_apply_back_early_exit_on_missing_db
FN:1846,_RNvNtNtCs9svORWNbXMv_13weaveback_api10apply_back5testss_39run_apply_back_reports_missing_database
FN:1808,_RNvNtNtCs9svORWNbXMv_13weaveback_api10apply_back5testss_40rank_candidate_closer_line_scores_higher
FN:2061,_RNvNtNtCs9svORWNbXMv_13weaveback_api10apply_back5testss_40test_search_macro_arg_candidate_verified
FN:1562,_RNvNtNtCs9svORWNbXMv_13weaveback_api10apply_back5testss_40token_overlap_score_counts_shared_tokens
FN:1569,_RNvNtNtCs9svORWNbXMv_13weaveback_api10apply_back5testss_40token_overlap_score_zero_when_no_overlap
FN:1829,_RNvNtNtCs9svORWNbXMv_13weaveback_api10apply_back5testss_41choose_best_candidate_returns_none_on_tie
FN:2095,_RNvNtNtCs9svORWNbXMv_13weaveback_api10apply_back5testss_41test_search_macro_body_candidate_verified
FN:2129,_RNvNtNtCs9svORWNbXMv_13weaveback_api10apply_back5testss_41test_search_macro_call_candidate_verified
FN:1597,_RNvNtNtCs9svORWNbXMv_13weaveback_api10apply_back5testss_42attempt_macro_arg_patch_exact_col_replaces
FN:2556,_RNvNtNtCs9svORWNbXMv_13weaveback_api10apply_back5testss_43apply_patches_to_file_missing_source_errors
FN:1817,_RNvNtNtCs9svORWNbXMv_13weaveback_api10apply_back5testss_43choose_best_candidate_returns_highest_score
FN:1529,_RNvNtNtCs9svORWNbXMv_13weaveback_api10apply_back5testss_43fuzzy_find_line_returns_none_outside_window
FN:1523,_RNvNtNtCs9svORWNbXMv_13weaveback_api10apply_back5testss_43fuzzy_find_line_returns_none_when_ambiguous
FN:1699,_RNvNtNtCs9svORWNbXMv_13weaveback_api10apply_back5testss_43patch_source_location_returns_file_and_line
FN:1715,_RNvNtNtCs9svORWNbXMv_13weaveback_api10apply_back5testss_43strip_indent_returns_original_when_no_match
FN:2668,_RNvNtNtCs9svORWNbXMv_13weaveback_api10apply_back5testss_43test_run_apply_back_diff_insert_is_detected
FN:2716,_RNvNtNtCs9svORWNbXMv_13weaveback_api10apply_back5testss_43test_run_apply_back_skips_insert_and_delete
FN:1664,_RNvNtNtCs9svORWNbXMv_13weaveback_api10apply_back5testss_44attempt_macro_body_fix_no_match_returns_none
FN:1536,_RNvNtNtCs9svORWNbXMv_13weaveback_api10apply_back5testss_44fuzzy_find_line_tolerates_leading_whitespace
FN:1681,_RNvNtNtCs9svORWNbXMv_13weaveback_api10apply_back5testss_44patch_source_rank_macro_arg_outranks_literal
FN:2437,_RNvNtNtCs9svORWNbXMv_13weaveback_api10apply_back5testss_44test_apply_back_oracle_rejection_on_mismatch
FN:2228,_RNvNtNtCs9svORWNbXMv_13weaveback_api10apply_back5testss_45apply_patches_to_file_dry_run_does_not_mutate
FN:1646,_RNvNtNtCs9svORWNbXMv_13weaveback_api10apply_back5testss_45attempt_macro_body_fix_returns_none_when_same
FN:1838,_RNvNtNtCs9svORWNbXMv_13weaveback_api10apply_back5testss_45choose_best_candidate_returns_none_when_empty
FN:1577,_RNvNtNtCs9svORWNbXMv_13weaveback_api10apply_back5testss_45differing_token_pair_single_diff_returns_pair
FN:1639,_RNvNtNtCs9svORWNbXMv_13weaveback_api10apply_back5testss_47attempt_macro_body_fix_no_vars_replaces_literal
FN:1723,_RNvNtNtCs9svORWNbXMv_13weaveback_api10apply_back5testss_47verify_candidate_returns_true_for_matching_line
FN:2157,_RNvNtNtCs9svORWNbXMv_13weaveback_api10apply_back5testss_49apply_patches_to_file_reports_skipped_unpatchable
FN:1652,_RNvNtNtCs9svORWNbXMv_13weaveback_api10apply_back5testss_49attempt_macro_body_fix_adjacent_vars_is_ambiguous
FN:1977,_RNvNtNtCs9svORWNbXMv_13weaveback_api10apply_back5testss_49run_apply_back_reports_missing_source_map_on_diff
FN:2618,_RNvNtNtCs9svORWNbXMv_13weaveback_api10apply_back5testss_50test_apply_patches_to_file_macro_body_vars_success
FN:1732,_RNvNtNtCs9svORWNbXMv_13weaveback_api10apply_back5testss_50verify_candidate_returns_false_for_mismatched_line
FN:1605,_RNvNtNtCs9svORWNbXMv_13weaveback_api10apply_back5testss_51attempt_macro_arg_patch_returns_none_when_not_found
FN:2294,_RNvNtNtCs9svORWNbXMv_13weaveback_api10apply_back5testss_51run_apply_back_specific_files_non_existent_is_no_op
FN:2696,_RNvNtNtCs9svORWNbXMv_13weaveback_api10apply_back5testss_51test_run_apply_back_size_changing_replace_rejection
FN:1612,_RNvNtNtCs9svORWNbXMv_13weaveback_api10apply_back5testss_53attempt_macro_arg_patch_fallback_finds_differing_part
FN:1583,_RNvNtNtCs9svORWNbXMv_13weaveback_api10apply_back5testss_53differing_token_pair_returns_none_when_multiple_diffs
FN:2045,_RNvNtNtCs9svORWNbXMv_13weaveback_api10apply_back5testss_53lsp_definition_hint_returns_none_if_lsp_not_available
FN:2776,_RNvNtNtCs9svORWNbXMv_13weaveback_api10apply_back5testss_53test_apply_patches_to_file_macro_body_literal_success
FN:1740,_RNvNtNtCs9svORWNbXMv_13weaveback_api10apply_back5testss_53verify_candidate_returns_false_when_line_out_of_range
FN:1865,_RNvNtNtCs9svORWNbXMv_13weaveback_api10apply_back5testss_54attempt_macro_body_fix_with_single_var_updates_literal
FN:2000,_RNvNtNtCs9svORWNbXMv_13weaveback_api10apply_back5testss_55resolve_patch_source_falls_back_to_noweb_if_trace_fails
FN:1883,_RNvNtNtCs9svORWNbXMv_13weaveback_api10apply_back5testss_57attempt_macro_body_fix_returns_none_when_body_eq_expanded
FN:1627,_RNvNtNtCs9svORWNbXMv_13weaveback_api10apply_back5testss_58attempt_macro_arg_patch_fallback_avoids_false_suffix_match
FN:1589,_RNvNtNtCs9svORWNbXMv_13weaveback_api10apply_back5testss_58differing_token_pair_returns_none_when_token_counts_differ
FN:2022,_RNvNtNtCs9svORWNbXMv_13weaveback_api10apply_back5testss_59resolve_best_patch_source_falls_back_to_available_candidate
FN:2192,_RNvNtNtCs9svORWNbXMv_13weaveback_api10apply_back5testss_60apply_patches_to_file_reports_manual_for_vars_with_no_config
FN:1196,_RNCNCNvNtCs9svORWNbXMv_13weaveback_api10apply_back14run_apply_back00B7_
FN:1205,_RNCNCNvNtCs9svORWNbXMv_13weaveback_api10apply_back14run_apply_backs0_00B7_
FN:759,_RNCNCNvNtCs9svORWNbXMv_13weaveback_api10apply_back20resolve_patch_sources1_00B7_
FN:1039,_RNCNCNvNtCs9svORWNbXMv_13weaveback_api10apply_back21apply_patches_to_files_00B7_
FN:470,_RNCNCNvNtCs9svORWNbXMv_13weaveback_api10apply_back21choose_best_candidate00B7_
FN:219,_RNCNvNtCs9svORWNbXMv_13weaveback_api10apply_back11splice_line0B5_
FN:1196,_RNCNvNtCs9svORWNbXMv_13weaveback_api10apply_back14run_apply_back0B5_
FN:1205,_RNCNvNtCs9svORWNbXMv_13weaveback_api10apply_back14run_apply_backs0_0B5_
FN:1266,_RNCNvNtCs9svORWNbXMv_13weaveback_api10apply_back14run_apply_backs2_0B5_
FN:1335,_RNCNvNtCs9svORWNbXMv_13weaveback_api10apply_back14run_apply_backs3_0B5_
FN:1338,_RNCNvNtCs9svORWNbXMv_13weaveback_api10apply_back14run_apply_backs4_0B5_
FN:1339,_RNCNvNtCs9svORWNbXMv_13weaveback_api10apply_back14run_apply_backs5_0B5_
FN:1341,_RNCNvNtCs9svORWNbXMv_13weaveback_api10apply_back14run_apply_backs6_0B5_
FN:1342,_RNCNvNtCs9svORWNbXMv_13weaveback_api10apply_back14run_apply_backs7_0B5_
FN:1374,_RNCNvNtCs9svORWNbXMv_13weaveback_api10apply_back14run_apply_backs8_0B5_
FN:1377,_RNCNvNtCs9svORWNbXMv_13weaveback_api10apply_back14run_apply_backs9_0B5_
FN:1197,_RNCNvNtCs9svORWNbXMv_13weaveback_api10apply_back14run_apply_backs_0B5_
FN:1378,_RNCNvNtCs9svORWNbXMv_13weaveback_api10apply_back14run_apply_backsa_0B5_
FN:1381,_RNCNvNtCs9svORWNbXMv_13weaveback_api10apply_back14run_apply_backsb_0B5_
FN:1418,_RNCNvNtCs9svORWNbXMv_13weaveback_api10apply_back14run_apply_backsc_0B5_
FN:1450,_RNCNvNtCs9svORWNbXMv_13weaveback_api10apply_back14run_apply_backsd_0B5_
FN:489,_RNCNvNtCs9svORWNbXMv_13weaveback_api10apply_back19chunk_context_bonus0B5_
FN:237,_RNCNvNtCs9svORWNbXMv_13weaveback_api10apply_back19token_overlap_score0B5_
FN:260,_RNCNvNtCs9svORWNbXMv_13weaveback_api10apply_back20differing_token_pair0B5_
FN:707,_RNCNvNtCs9svORWNbXMv_13weaveback_api10apply_back20resolve_patch_source0B5_
FN:756,_RNCNvNtCs9svORWNbXMv_13weaveback_api10apply_back20resolve_patch_sources0_0B5_
FN:757,_RNCNvNtCs9svORWNbXMv_13weaveback_api10apply_back20resolve_patch_sources1_0B5_
FN:762,_RNCNvNtCs9svORWNbXMv_13weaveback_api10apply_back20resolve_patch_sources2_0B5_
FN:772,_RNCNvNtCs9svORWNbXMv_13weaveback_api10apply_back20resolve_patch_sources3_0B5_
FN:773,_RNCNvNtCs9svORWNbXMv_13weaveback_api10apply_back20resolve_patch_sources4_0B5_
FN:774,_RNCNvNtCs9svORWNbXMv_13weaveback_api10apply_back20resolve_patch_sources5_0B5_
FN:749,_RNCNvNtCs9svORWNbXMv_13weaveback_api10apply_back20resolve_patch_sources_0B5_
FN:1010,_RNCNvNtCs9svORWNbXMv_13weaveback_api10apply_back21apply_patches_to_file0B5_
FN:1039,_RNCNvNtCs9svORWNbXMv_13weaveback_api10apply_back21apply_patches_to_files_0B5_
FN:468,_RNCNvNtCs9svORWNbXMv_13weaveback_api10apply_back21choose_best_candidate0B5_
FN:473,_RNCNvNtCs9svORWNbXMv_13weaveback_api10apply_back21choose_best_candidates_0B5_
FN:422,_RNCNvNtCs9svORWNbXMv_13weaveback_api10apply_back22candidate_line_indices0B5_
FN:304,_RNCNvNtCs9svORWNbXMv_13weaveback_api10apply_back23attempt_macro_arg_patch0B5_
FN:308,_RNCNvNtCs9svORWNbXMv_13weaveback_api10apply_back23attempt_macro_arg_patchs_0B5_
FN:804,_RNCNvNtCs9svORWNbXMv_13weaveback_api10apply_back25resolve_best_patch_source0B5_
FN:861,_RNCNvNtCs9svORWNbXMv_13weaveback_api10apply_back25resolve_best_patch_sources_0B5_
FN:654,_RNCNvNtCs9svORWNbXMv_13weaveback_api10apply_back27search_macro_call_candidate0B5_
FN:656,_RNCNvNtCs9svORWNbXMv_13weaveback_api10apply_back27search_macro_call_candidates_0B5_
FN:947,_RNCNvNtCs9svORWNbXMv_13weaveback_api10apply_back8do_patch0B5_
FN:969,_RNCNvNtCs9svORWNbXMv_13weaveback_api10apply_back8do_patchs_0B5_
FN:228,_RNCNvNvNtCs9svORWNbXMv_13weaveback_api10apply_back19token_overlap_score6tokens0B7_
FN:230,_RNCNvNvNtCs9svORWNbXMv_13weaveback_api10apply_back19token_overlap_score6tokenss0_0B7_
FN:229,_RNCNvNvNtCs9svORWNbXMv_13weaveback_api10apply_back19token_overlap_score6tokenss_0B7_
FN:246,_RNCNvNvNtCs9svORWNbXMv_13weaveback_api10apply_back20differing_token_pair6tokens0B7_
FN:247,_RNCNvNvNtCs9svORWNbXMv_13weaveback_api10apply_back20differing_token_pair6tokenss_0B7_
FNDA:0,_RNvMs2_NtCsaY2CvWUtqiY_13weaveback_api10apply_backNtB5_11PatchSource8src_file
FNDA:0,_RNvNtCsaY2CvWUtqiY_13weaveback_api10apply_back11splice_line
FNDA:0,_RNvNtCsaY2CvWUtqiY_13weaveback_api10apply_back12strip_indent
FNDA:0,_RNvNtCsaY2CvWUtqiY_13weaveback_api10apply_back14rank_candidate
FNDA:0,_RNvNtCsaY2CvWUtqiY_13weaveback_api10apply_back14run_apply_back
FNDA:0,_RNvNtCsaY2CvWUtqiY_13weaveback_api10apply_back15fuzzy_find_line
FNDA:0,_RNvNtCsaY2CvWUtqiY_13weaveback_api10apply_back16verify_candidate
FNDA:0,_RNvNtCsaY2CvWUtqiY_13weaveback_api10apply_back17patch_source_rank
FNDA:0,_RNvNtCsaY2CvWUtqiY_13weaveback_api10apply_back19chunk_context_bonus
FNDA:0,_RNvNtCsaY2CvWUtqiY_13weaveback_api10apply_back19lsp_definition_hint
FNDA:0,_RNvNtCsaY2CvWUtqiY_13weaveback_api10apply_back19resolve_noweb_entry
FNDA:0,_RNvNtCsaY2CvWUtqiY_13weaveback_api10apply_back19token_overlap_score
FNDA:0,_RNvNtCsaY2CvWUtqiY_13weaveback_api10apply_back20differing_token_pair
FNDA:0,_RNvNtCsaY2CvWUtqiY_13weaveback_api10apply_back20resolve_patch_source
FNDA:0,_RNvNtCsaY2CvWUtqiY_13weaveback_api10apply_back21apply_patches_to_file
FNDA:0,_RNvNtCsaY2CvWUtqiY_13weaveback_api10apply_back21choose_best_candidate
FNDA:0,_RNvNtCsaY2CvWUtqiY_13weaveback_api10apply_back21patch_source_location
FNDA:0,_RNvNtCsaY2CvWUtqiY_13weaveback_api10apply_back22attempt_macro_body_fix
FNDA:0,_RNvNtCsaY2CvWUtqiY_13weaveback_api10apply_back22candidate_line_indices
FNDA:0,_RNvNtCsaY2CvWUtqiY_13weaveback_api10apply_back23attempt_macro_arg_patch
FNDA:0,_RNvNtCsaY2CvWUtqiY_13weaveback_api10apply_back25resolve_best_patch_source
FNDA:0,_RNvNtCsaY2CvWUtqiY_13weaveback_api10apply_back26search_macro_arg_candidate
FNDA:0,_RNvNtCsaY2CvWUtqiY_13weaveback_api10apply_back27search_macro_body_candidate
FNDA:0,_RNvNtCsaY2CvWUtqiY_13weaveback_api10apply_back27search_macro_call_candidate
FNDA:0,_RNvNtCsaY2CvWUtqiY_13weaveback_api10apply_back8do_patch
FNDA:0,_RNvNvNtCsaY2CvWUtqiY_13weaveback_api10apply_back19token_overlap_score6tokens
FNDA:0,_RNvNvNtCsaY2CvWUtqiY_13weaveback_api10apply_back20differing_token_pair6tokens
FNDA:0,_RNvXNtCsaY2CvWUtqiY_13weaveback_api10apply_backNtB2_14ApplyBackErrorINtNtCs9yMf5VoQcqS_4core7convert4FromNtNtCs15Atq6sPk6z_16weaveback_tangle2db7DbErrorE4from
FNDA:0,_RNvXs0_NtCsaY2CvWUtqiY_13weaveback_api10apply_backNtB5_14ApplyBackErrorINtNtCs9yMf5VoQcqS_4core7convert4FromNtNtB7_6lookup11LookupErrorE4from
FNDA:0,_RNvXs1_NtCsaY2CvWUtqiY_13weaveback_api10apply_backNtB5_14ApplyBackErrorNtNtCs9yMf5VoQcqS_4core3fmt7Display3fmt
FNDA:0,_RNvXs_NtCsaY2CvWUtqiY_13weaveback_api10apply_backNtB4_14ApplyBackErrorINtNtCs9yMf5VoQcqS_4core7convert4FromNtNtNtCshbt5Cx3aOt7_3std2io5error5ErrorE4from
FNDA:0,_RNCNCNvNtCsaY2CvWUtqiY_13weaveback_api10apply_back14run_apply_back00B7_
FNDA:0,_RNCNCNvNtCsaY2CvWUtqiY_13weaveback_api10apply_back14run_apply_backs0_00B7_
FNDA:0,_RNCNCNvNtCsaY2CvWUtqiY_13weaveback_api10apply_back20resolve_patch_sources1_00B7_
FNDA:0,_RNCNCNvNtCsaY2CvWUtqiY_13weaveback_api10apply_back21apply_patches_to_files_00B7_
FNDA:0,_RNCNCNvNtCsaY2CvWUtqiY_13weaveback_api10apply_back21choose_best_candidate00B7_
FNDA:0,_RNCNvNtCsaY2CvWUtqiY_13weaveback_api10apply_back11splice_line0B5_
FNDA:0,_RNCNvNtCsaY2CvWUtqiY_13weaveback_api10apply_back14run_apply_back0B5_
FNDA:0,_RNCNvNtCsaY2CvWUtqiY_13weaveback_api10apply_back14run_apply_backs0_0B5_
FNDA:0,_RNCNvNtCsaY2CvWUtqiY_13weaveback_api10apply_back14run_apply_backs2_0B5_
FNDA:0,_RNCNvNtCsaY2CvWUtqiY_13weaveback_api10apply_back14run_apply_backs3_0B5_
FNDA:0,_RNCNvNtCsaY2CvWUtqiY_13weaveback_api10apply_back14run_apply_backs4_0B5_
FNDA:0,_RNCNvNtCsaY2CvWUtqiY_13weaveback_api10apply_back14run_apply_backs5_0B5_
FNDA:0,_RNCNvNtCsaY2CvWUtqiY_13weaveback_api10apply_back14run_apply_backs6_0B5_
FNDA:0,_RNCNvNtCsaY2CvWUtqiY_13weaveback_api10apply_back14run_apply_backs7_0B5_
FNDA:0,_RNCNvNtCsaY2CvWUtqiY_13weaveback_api10apply_back14run_apply_backs8_0B5_
FNDA:0,_RNCNvNtCsaY2CvWUtqiY_13weaveback_api10apply_back14run_apply_backs9_0B5_
FNDA:0,_RNCNvNtCsaY2CvWUtqiY_13weaveback_api10apply_back14run_apply_backs_0B5_
FNDA:0,_RNCNvNtCsaY2CvWUtqiY_13weaveback_api10apply_back14run_apply_backsa_0B5_
FNDA:0,_RNCNvNtCsaY2CvWUtqiY_13weaveback_api10apply_back14run_apply_backsb_0B5_
FNDA:0,_RNCNvNtCsaY2CvWUtqiY_13weaveback_api10apply_back14run_apply_backsc_0B5_
FNDA:0,_RNCNvNtCsaY2CvWUtqiY_13weaveback_api10apply_back14run_apply_backsd_0B5_
FNDA:0,_RNCNvNtCsaY2CvWUtqiY_13weaveback_api10apply_back19chunk_context_bonus0B5_
FNDA:0,_RNCNvNtCsaY2CvWUtqiY_13weaveback_api10apply_back19token_overlap_score0B5_
FNDA:0,_RNCNvNtCsaY2CvWUtqiY_13weaveback_api10apply_back20differing_token_pair0B5_
FNDA:0,_RNCNvNtCsaY2CvWUtqiY_13weaveback_api10apply_back20resolve_patch_source0B5_
FNDA:0,_RNCNvNtCsaY2CvWUtqiY_13weaveback_api10apply_back20resolve_patch_sources0_0B5_
FNDA:0,_RNCNvNtCsaY2CvWUtqiY_13weaveback_api10apply_back20resolve_patch_sources1_0B5_
FNDA:0,_RNCNvNtCsaY2CvWUtqiY_13weaveback_api10apply_back20resolve_patch_sources2_0B5_
FNDA:0,_RNCNvNtCsaY2CvWUtqiY_13weaveback_api10apply_back20resolve_patch_sources3_0B5_
FNDA:0,_RNCNvNtCsaY2CvWUtqiY_13weaveback_api10apply_back20resolve_patch_sources4_0B5_
FNDA:0,_RNCNvNtCsaY2CvWUtqiY_13weaveback_api10apply_back20resolve_patch_sources5_0B5_
FNDA:0,_RNCNvNtCsaY2CvWUtqiY_13weaveback_api10apply_back20resolve_patch_sources_0B5_
FNDA:0,_RNCNvNtCsaY2CvWUtqiY_13weaveback_api10apply_back21apply_patches_to_file0B5_
FNDA:0,_RNCNvNtCsaY2CvWUtqiY_13weaveback_api10apply_back21apply_patches_to_files_0B5_
FNDA:0,_RNCNvNtCsaY2CvWUtqiY_13weaveback_api10apply_back21choose_best_candidate0B5_
FNDA:0,_RNCNvNtCsaY2CvWUtqiY_13weaveback_api10apply_back21choose_best_candidates_0B5_
FNDA:0,_RNCNvNtCsaY2CvWUtqiY_13weaveback_api10apply_back22candidate_line_indices0B5_
FNDA:0,_RNCNvNtCsaY2CvWUtqiY_13weaveback_api10apply_back23attempt_macro_arg_patch0B5_
FNDA:0,_RNCNvNtCsaY2CvWUtqiY_13weaveback_api10apply_back23attempt_macro_arg_patchs_0B5_
FNDA:0,_RNCNvNtCsaY2CvWUtqiY_13weaveback_api10apply_back25resolve_best_patch_source0B5_
FNDA:0,_RNCNvNtCsaY2CvWUtqiY_13weaveback_api10apply_back25resolve_best_patch_sources_0B5_
FNDA:0,_RNCNvNtCsaY2CvWUtqiY_13weaveback_api10apply_back27search_macro_call_candidate0B5_
FNDA:0,_RNCNvNtCsaY2CvWUtqiY_13weaveback_api10apply_back27search_macro_call_candidates_0B5_
FNDA:0,_RNCNvNtCsaY2CvWUtqiY_13weaveback_api10apply_back8do_patch0B5_
FNDA:0,_RNCNvNtCsaY2CvWUtqiY_13weaveback_api10apply_back8do_patchs_0B5_
FNDA:0,_RNCNvNvNtCsaY2CvWUtqiY_13weaveback_api10apply_back19token_overlap_score6tokens0B7_
FNDA:0,_RNCNvNvNtCsaY2CvWUtqiY_13weaveback_api10apply_back19token_overlap_score6tokenss0_0B7_
FNDA:0,_RNCNvNvNtCsaY2CvWUtqiY_13weaveback_api10apply_back19token_overlap_score6tokenss_0B7_
FNDA:0,_RNCNvNvNtCsaY2CvWUtqiY_13weaveback_api10apply_back20differing_token_pair6tokens0B7_
FNDA:0,_RNCNvNvNtCsaY2CvWUtqiY_13weaveback_api10apply_back20differing_token_pair6tokenss_0B7_
FNDA:4,_RNvMs2_NtCs9svORWNbXMv_13weaveback_api10apply_backNtB5_11PatchSource8src_file
FNDA:7,_RNvNtCs9svORWNbXMv_13weaveback_api10apply_back11splice_line
FNDA:15,_RNvNtCs9svORWNbXMv_13weaveback_api10apply_back12strip_indent
FNDA:4,_RNvNtCs9svORWNbXMv_13weaveback_api10apply_back14rank_candidate
FNDA:19,_RNvNtCs9svORWNbXMv_13weaveback_api10apply_back14run_apply_back
FNDA:14,_RNvNtCs9svORWNbXMv_13weaveback_api10apply_back15fuzzy_find_line
FNDA:8,_RNvNtCs9svORWNbXMv_13weaveback_api10apply_back16verify_candidate
FNDA:7,_RNvNtCs9svORWNbXMv_13weaveback_api10apply_back17patch_source_rank
FNDA:2,_RNvNtCs9svORWNbXMv_13weaveback_api10apply_back19chunk_context_bonus
FNDA:1,_RNvNtCs9svORWNbXMv_13weaveback_api10apply_back19lsp_definition_hint
FNDA:14,_RNvNtCs9svORWNbXMv_13weaveback_api10apply_back19resolve_noweb_entry
FNDA:8,_RNvNtCs9svORWNbXMv_13weaveback_api10apply_back19token_overlap_score
FNDA:6,_RNvNtCs9svORWNbXMv_13weaveback_api10apply_back20differing_token_pair
FNDA:4,_RNvNtCs9svORWNbXMv_13weaveback_api10apply_back20resolve_patch_source
FNDA:14,_RNvNtCs9svORWNbXMv_13weaveback_api10apply_back21apply_patches_to_file
FNDA:10,_RNvNtCs9svORWNbXMv_13weaveback_api10apply_back21choose_best_candidate
FNDA:4,_RNvNtCs9svORWNbXMv_13weaveback_api10apply_back21patch_source_location
FNDA:13,_RNvNtCs9svORWNbXMv_13weaveback_api10apply_back22attempt_macro_body_fix
FNDA:4,_RNvNtCs9svORWNbXMv_13weaveback_api10apply_back22candidate_line_indices
FNDA:6,_RNvNtCs9svORWNbXMv_13weaveback_api10apply_back23attempt_macro_arg_patch
FNDA:1,_RNvNtCs9svORWNbXMv_13weaveback_api10apply_back25resolve_best_patch_source
FNDA:1,_RNvNtCs9svORWNbXMv_13weaveback_api10apply_back26search_macro_arg_candidate
FNDA:3,_RNvNtCs9svORWNbXMv_13weaveback_api10apply_back27search_macro_body_candidate
FNDA:3,_RNvNtCs9svORWNbXMv_13weaveback_api10apply_back27search_macro_call_candidate
FNDA:16,_RNvNtCs9svORWNbXMv_13weaveback_api10apply_back8do_patch
FNDA:24,_RNvNvNtCs9svORWNbXMv_13weaveback_api10apply_back19token_overlap_score6tokens
FNDA:12,_RNvNvNtCs9svORWNbXMv_13weaveback_api10apply_back20differing_token_pair6tokens
FNDA:0,_RNvXNtCs9svORWNbXMv_13weaveback_api10apply_backNtB2_14ApplyBackErrorINtNtCs9yMf5VoQcqS_4core7convert4FromNtNtCsUfOgH5zVts_16weaveback_tangle2db7DbErrorE4from
FNDA:0,_RNvXs0_NtCs9svORWNbXMv_13weaveback_api10apply_backNtB5_14ApplyBackErrorINtNtCs9yMf5VoQcqS_4core7convert4FromNtNtB7_6lookup11LookupErrorE4from
FNDA:1,_RNvXs1_NtCs9svORWNbXMv_13weaveback_api10apply_backNtB5_14ApplyBackErrorNtNtCs9yMf5VoQcqS_4core3fmt7Display3fmt
FNDA:1,_RNvXs_NtCs9svORWNbXMv_13weaveback_api10apply_backNtB4_14ApplyBackErrorINtNtCs9yMf5VoQcqS_4core7convert4FromNtNtNtCshbt5Cx3aOt7_3std2io5error5ErrorE4from
FNDA:27,_RNvXs_NtNtCs9svORWNbXMv_13weaveback_api10apply_back5testsNtB4_13TestWorkspaceNtNtNtCs9yMf5VoQcqS_4core3ops4drop4Drop4drop
FNDA:28,_RNvMNtNtCs9svORWNbXMv_13weaveback_api10apply_back5testsNtB2_13TestWorkspace10write_file
FNDA:27,_RNvMNtNtCs9svORWNbXMv_13weaveback_api10apply_back5testsNtB2_13TestWorkspace3new
FNDA:26,_RNvMNtNtCs9svORWNbXMv_13weaveback_api10apply_back5testsNtB2_13TestWorkspace7open_db
FNDA:20,_RNvNtNtCs9svORWNbXMv_13weaveback_api10apply_back5tests5lines
FNDA:1,_RNvNtNtCs9svORWNbXMv_13weaveback_api10apply_back5testss_27strip_indent_removes_prefix
FNDA:1,_RNvNtNtCs9svORWNbXMv_13weaveback_api10apply_back5testss_27test_do_patch_fuzzy_success
FNDA:1,_RNvNtNtCs9svORWNbXMv_13weaveback_api10apply_back5testss_28do_patch_applies_exact_match
FNDA:1,_RNvNtNtCs9svORWNbXMv_13weaveback_api10apply_back5testss_29test_do_patch_already_applied
FNDA:1,_RNvNtNtCs9svORWNbXMv_13weaveback_api10apply_back5testss_30test_run_apply_back_macro_edit
FNDA:1,_RNvNtNtCs9svORWNbXMv_13weaveback_api10apply_back5testss_31run_apply_back_gen_dir_fallback
FNDA:1,_RNvNtNtCs9svORWNbXMv_13weaveback_api10apply_back5testss_32do_patch_detects_already_applied
FNDA:1,_RNvNtNtCs9svORWNbXMv_13weaveback_api10apply_back5testss_32run_apply_back_no_modified_files
FNDA:1,_RNvNtNtCs9svORWNbXMv_13weaveback_api10apply_back5testss_33splice_line_replaces_indexed_line
FNDA:1,_RNvNtNtCs9svORWNbXMv_13weaveback_api10apply_back5testss_34fuzzy_find_line_finds_unique_match
FNDA:1,_RNvNtNtCs9svORWNbXMv_13weaveback_api10apply_back5testss_34run_apply_back_bulk_reconciliation
FNDA:1,_RNvNtNtCs9svORWNbXMv_13weaveback_api10apply_back5testss_35apply_back_error_display_io_variant
FNDA:1,_RNvNtNtCs9svORWNbXMv_13weaveback_api10apply_back5testss_35test_run_apply_back_success_literal
FNDA:1,_RNvNtNtCs9svORWNbXMv_13weaveback_api10apply_back5testss_36run_apply_back_with_restricted_files
FNDA:1,_RNvNtNtCs9svORWNbXMv_13weaveback_api10apply_back5testss_37test_do_patch_conflict_reports_actual
FNDA:1,_RNvNtNtCs9svORWNbXMv_13weaveback_api10apply_back5testss_38do_patch_dry_run_does_not_modify_lines
FNDA:1,_RNvNtNtCs9svORWNbXMv_13weaveback_api10apply_back5testss_38run_apply_back_diff_delete_is_detected
FNDA:1,_RNvNtNtCs9svORWNbXMv_13weaveback_api10apply_back5testss_38run_apply_back_skips_missing_gen_files
FNDA:1,_RNvNtNtCs9svORWNbXMv_13weaveback_api10apply_back5testss_38splice_line_preserves_trailing_newline
FNDA:1,_RNvNtNtCs9svORWNbXMv_13weaveback_api10apply_back5testss_39do_patch_records_conflict_when_no_match
FNDA:1,_RNvNtNtCs9svORWNbXMv_13weaveback_api10apply_back5testss_39patch_source_rank_unpatchable_is_lowest
FNDA:1,_RNvNtNtCs9svORWNbXMv_13weaveback_api10apply_back5testss_39run_apply_back_early_exit_on_missing_db
FNDA:1,_RNvNtNtCs9svORWNbXMv_13weaveback_api10apply_back5testss_39run_apply_back_reports_missing_database
FNDA:1,_RNvNtNtCs9svORWNbXMv_13weaveback_api10apply_back5testss_40rank_candidate_closer_line_scores_higher
FNDA:1,_RNvNtNtCs9svORWNbXMv_13weaveback_api10apply_back5testss_40test_search_macro_arg_candidate_verified
FNDA:1,_RNvNtNtCs9svORWNbXMv_13weaveback_api10apply_back5testss_40token_overlap_score_counts_shared_tokens
FNDA:1,_RNvNtNtCs9svORWNbXMv_13weaveback_api10apply_back5testss_40token_overlap_score_zero_when_no_overlap
FNDA:1,_RNvNtNtCs9svORWNbXMv_13weaveback_api10apply_back5testss_41choose_best_candidate_returns_none_on_tie
FNDA:1,_RNvNtNtCs9svORWNbXMv_13weaveback_api10apply_back5testss_41test_search_macro_body_candidate_verified
FNDA:1,_RNvNtNtCs9svORWNbXMv_13weaveback_api10apply_back5testss_41test_search_macro_call_candidate_verified
FNDA:1,_RNvNtNtCs9svORWNbXMv_13weaveback_api10apply_back5testss_42attempt_macro_arg_patch_exact_col_replaces
FNDA:1,_RNvNtNtCs9svORWNbXMv_13weaveback_api10apply_back5testss_43apply_patches_to_file_missing_source_errors
FNDA:1,_RNvNtNtCs9svORWNbXMv_13weaveback_api10apply_back5testss_43choose_best_candidate_returns_highest_score
FNDA:1,_RNvNtNtCs9svORWNbXMv_13weaveback_api10apply_back5testss_43fuzzy_find_line_returns_none_outside_window
FNDA:1,_RNvNtNtCs9svORWNbXMv_13weaveback_api10apply_back5testss_43fuzzy_find_line_returns_none_when_ambiguous
FNDA:1,_RNvNtNtCs9svORWNbXMv_13weaveback_api10apply_back5testss_43patch_source_location_returns_file_and_line
FNDA:1,_RNvNtNtCs9svORWNbXMv_13weaveback_api10apply_back5testss_43strip_indent_returns_original_when_no_match
FNDA:1,_RNvNtNtCs9svORWNbXMv_13weaveback_api10apply_back5testss_43test_run_apply_back_diff_insert_is_detected
FNDA:1,_RNvNtNtCs9svORWNbXMv_13weaveback_api10apply_back5testss_43test_run_apply_back_skips_insert_and_delete
FNDA:1,_RNvNtNtCs9svORWNbXMv_13weaveback_api10apply_back5testss_44attempt_macro_body_fix_no_match_returns_none
FNDA:1,_RNvNtNtCs9svORWNbXMv_13weaveback_api10apply_back5testss_44fuzzy_find_line_tolerates_leading_whitespace
FNDA:1,_RNvNtNtCs9svORWNbXMv_13weaveback_api10apply_back5testss_44patch_source_rank_macro_arg_outranks_literal
FNDA:1,_RNvNtNtCs9svORWNbXMv_13weaveback_api10apply_back5testss_44test_apply_back_oracle_rejection_on_mismatch
FNDA:1,_RNvNtNtCs9svORWNbXMv_13weaveback_api10apply_back5testss_45apply_patches_to_file_dry_run_does_not_mutate
FNDA:1,_RNvNtNtCs9svORWNbXMv_13weaveback_api10apply_back5testss_45attempt_macro_body_fix_returns_none_when_same
FNDA:1,_RNvNtNtCs9svORWNbXMv_13weaveback_api10apply_back5testss_45choose_best_candidate_returns_none_when_empty
FNDA:1,_RNvNtNtCs9svORWNbXMv_13weaveback_api10apply_back5testss_45differing_token_pair_single_diff_returns_pair
FNDA:1,_RNvNtNtCs9svORWNbXMv_13weaveback_api10apply_back5testss_47attempt_macro_body_fix_no_vars_replaces_literal
FNDA:1,_RNvNtNtCs9svORWNbXMv_13weaveback_api10apply_back5testss_47verify_candidate_returns_true_for_matching_line
FNDA:1,_RNvNtNtCs9svORWNbXMv_13weaveback_api10apply_back5testss_49apply_patches_to_file_reports_skipped_unpatchable
FNDA:1,_RNvNtNtCs9svORWNbXMv_13weaveback_api10apply_back5testss_49attempt_macro_body_fix_adjacent_vars_is_ambiguous
FNDA:1,_RNvNtNtCs9svORWNbXMv_13weaveback_api10apply_back5testss_49run_apply_back_reports_missing_source_map_on_diff
FNDA:1,_RNvNtNtCs9svORWNbXMv_13weaveback_api10apply_back5testss_50test_apply_patches_to_file_macro_body_vars_success
FNDA:1,_RNvNtNtCs9svORWNbXMv_13weaveback_api10apply_back5testss_50verify_candidate_returns_false_for_mismatched_line
FNDA:1,_RNvNtNtCs9svORWNbXMv_13weaveback_api10apply_back5testss_51attempt_macro_arg_patch_returns_none_when_not_found
FNDA:1,_RNvNtNtCs9svORWNbXMv_13weaveback_api10apply_back5testss_51run_apply_back_specific_files_non_existent_is_no_op
FNDA:1,_RNvNtNtCs9svORWNbXMv_13weaveback_api10apply_back5testss_51test_run_apply_back_size_changing_replace_rejection
FNDA:1,_RNvNtNtCs9svORWNbXMv_13weaveback_api10apply_back5testss_53attempt_macro_arg_patch_fallback_finds_differing_part
FNDA:1,_RNvNtNtCs9svORWNbXMv_13weaveback_api10apply_back5testss_53differing_token_pair_returns_none_when_multiple_diffs
FNDA:1,_RNvNtNtCs9svORWNbXMv_13weaveback_api10apply_back5testss_53lsp_definition_hint_returns_none_if_lsp_not_available
FNDA:1,_RNvNtNtCs9svORWNbXMv_13weaveback_api10apply_back5testss_53test_apply_patches_to_file_macro_body_literal_success
FNDA:1,_RNvNtNtCs9svORWNbXMv_13weaveback_api10apply_back5testss_53verify_candidate_returns_false_when_line_out_of_range
FNDA:1,_RNvNtNtCs9svORWNbXMv_13weaveback_api10apply_back5testss_54attempt_macro_body_fix_with_single_var_updates_literal
FNDA:1,_RNvNtNtCs9svORWNbXMv_13weaveback_api10apply_back5testss_55resolve_patch_source_falls_back_to_noweb_if_trace_fails
FNDA:1,_RNvNtNtCs9svORWNbXMv_13weaveback_api10apply_back5testss_57attempt_macro_body_fix_returns_none_when_body_eq_expanded
FNDA:1,_RNvNtNtCs9svORWNbXMv_13weaveback_api10apply_back5testss_58attempt_macro_arg_patch_fallback_avoids_false_suffix_match
FNDA:1,_RNvNtNtCs9svORWNbXMv_13weaveback_api10apply_back5testss_58differing_token_pair_returns_none_when_token_counts_differ
FNDA:1,_RNvNtNtCs9svORWNbXMv_13weaveback_api10apply_back5testss_59resolve_best_patch_source_falls_back_to_available_candidate
FNDA:1,_RNvNtNtCs9svORWNbXMv_13weaveback_api10apply_back5testss_60apply_patches_to_file_reports_manual_for_vars_with_no_config
FNDA:16,_RNCNCNvNtCs9svORWNbXMv_13weaveback_api10apply_back14run_apply_back00B7_
FNDA:2,_RNCNCNvNtCs9svORWNbXMv_13weaveback_api10apply_back14run_apply_backs0_00B7_
FNDA:0,_RNCNCNvNtCs9svORWNbXMv_13weaveback_api10apply_back20resolve_patch_sources1_00B7_
FNDA:1,_RNCNCNvNtCs9svORWNbXMv_13weaveback_api10apply_back21apply_patches_to_files_00B7_
FNDA:1,_RNCNCNvNtCs9svORWNbXMv_13weaveback_api10apply_back21choose_best_candidate00B7_
FNDA:12,_RNCNvNtCs9svORWNbXMv_13weaveback_api10apply_back11splice_line0B5_
FNDA:16,_RNCNvNtCs9svORWNbXMv_13weaveback_api10apply_back14run_apply_back0B5_
FNDA:3,_RNCNvNtCs9svORWNbXMv_13weaveback_api10apply_back14run_apply_backs0_0B5_
FNDA:4,_RNCNvNtCs9svORWNbXMv_13weaveback_api10apply_back14run_apply_backs2_0B5_
FNDA:3,_RNCNvNtCs9svORWNbXMv_13weaveback_api10apply_back14run_apply_backs3_0B5_
FNDA:2,_RNCNvNtCs9svORWNbXMv_13weaveback_api10apply_back14run_apply_backs4_0B5_
FNDA:1,_RNCNvNtCs9svORWNbXMv_13weaveback_api10apply_back14run_apply_backs5_0B5_
FNDA:2,_RNCNvNtCs9svORWNbXMv_13weaveback_api10apply_back14run_apply_backs6_0B5_
FNDA:1,_RNCNvNtCs9svORWNbXMv_13weaveback_api10apply_back14run_apply_backs7_0B5_
FNDA:2,_RNCNvNtCs9svORWNbXMv_13weaveback_api10apply_back14run_apply_backs8_0B5_
FNDA:1,_RNCNvNtCs9svORWNbXMv_13weaveback_api10apply_back14run_apply_backs9_0B5_
FNDA:0,_RNCNvNtCs9svORWNbXMv_13weaveback_api10apply_back14run_apply_backs_0B5_
FNDA:0,_RNCNvNtCs9svORWNbXMv_13weaveback_api10apply_back14run_apply_backsa_0B5_
FNDA:1,_RNCNvNtCs9svORWNbXMv_13weaveback_api10apply_back14run_apply_backsb_0B5_
FNDA:1,_RNCNvNtCs9svORWNbXMv_13weaveback_api10apply_back14run_apply_backsc_0B5_
FNDA:3,_RNCNvNtCs9svORWNbXMv_13weaveback_api10apply_back14run_apply_backsd_0B5_
FNDA:0,_RNCNvNtCs9svORWNbXMv_13weaveback_api10apply_back19chunk_context_bonus0B5_
FNDA:67,_RNCNvNtCs9svORWNbXMv_13weaveback_api10apply_back19token_overlap_score0B5_
FNDA:8,_RNCNvNtCs9svORWNbXMv_13weaveback_api10apply_back20differing_token_pair0B5_
FNDA:4,_RNCNvNtCs9svORWNbXMv_13weaveback_api10apply_back20resolve_patch_source0B5_
FNDA:0,_RNCNvNtCs9svORWNbXMv_13weaveback_api10apply_back20resolve_patch_sources0_0B5_
FNDA:0,_RNCNvNtCs9svORWNbXMv_13weaveback_api10apply_back20resolve_patch_sources1_0B5_
FNDA:0,_RNCNvNtCs9svORWNbXMv_13weaveback_api10apply_back20resolve_patch_sources2_0B5_
FNDA:0,_RNCNvNtCs9svORWNbXMv_13weaveback_api10apply_back20resolve_patch_sources3_0B5_
FNDA:0,_RNCNvNtCs9svORWNbXMv_13weaveback_api10apply_back20resolve_patch_sources4_0B5_
FNDA:0,_RNCNvNtCs9svORWNbXMv_13weaveback_api10apply_back20resolve_patch_sources5_0B5_
FNDA:0,_RNCNvNtCs9svORWNbXMv_13weaveback_api10apply_back20resolve_patch_sources_0B5_
FNDA:32,_RNCNvNtCs9svORWNbXMv_13weaveback_api10apply_back21apply_patches_to_file0B5_
FNDA:1,_RNCNvNtCs9svORWNbXMv_13weaveback_api10apply_back21apply_patches_to_files_0B5_
FNDA:4,_RNCNvNtCs9svORWNbXMv_13weaveback_api10apply_back21choose_best_candidate0B5_
FNDA:3,_RNCNvNtCs9svORWNbXMv_13weaveback_api10apply_back21choose_best_candidates_0B5_
FNDA:18,_RNCNvNtCs9svORWNbXMv_13weaveback_api10apply_back22candidate_line_indices0B5_
FNDA:24,_RNCNvNtCs9svORWNbXMv_13weaveback_api10apply_back23attempt_macro_arg_patch0B5_
FNDA:17,_RNCNvNtCs9svORWNbXMv_13weaveback_api10apply_back23attempt_macro_arg_patchs_0B5_
FNDA:1,_RNCNvNtCs9svORWNbXMv_13weaveback_api10apply_back25resolve_best_patch_source0B5_
FNDA:0,_RNCNvNtCs9svORWNbXMv_13weaveback_api10apply_back25resolve_best_patch_sources_0B5_
FNDA:1,_RNCNvNtCs9svORWNbXMv_13weaveback_api10apply_back27search_macro_call_candidate0B5_
FNDA:1,_RNCNvNtCs9svORWNbXMv_13weaveback_api10apply_back27search_macro_call_candidates_0B5_
FNDA:7,_RNCNvNtCs9svORWNbXMv_13weaveback_api10apply_back8do_patch0B5_
FNDA:1,_RNCNvNtCs9svORWNbXMv_13weaveback_api10apply_back8do_patchs_0B5_
FNDA:298,_RNCNvNvNtCs9svORWNbXMv_13weaveback_api10apply_back19token_overlap_score6tokens0B7_
FNDA:54,_RNCNvNvNtCs9svORWNbXMv_13weaveback_api10apply_back19token_overlap_score6tokenss0_0B7_
FNDA:111,_RNCNvNvNtCs9svORWNbXMv_13weaveback_api10apply_back19token_overlap_score6tokenss_0B7_
FNDA:103,_RNCNvNvNtCs9svORWNbXMv_13weaveback_api10apply_back20differing_token_pair6tokens0B7_
FNDA:31,_RNCNvNvNtCs9svORWNbXMv_13weaveback_api10apply_back20differing_token_pair6tokenss_0B7_
FNF:229
FNH:141
DA:23,0
DA:26,1
DA:29,0
DA:33,1
DA:34,1
DA:35,0
DA:36,1
DA:37,0
DA:39,1
DA:77,0
DA:78,4
DA:79,4
DA:80,4
DA:81,0
DA:82,0
DA:83,0
DA:84,0
DA:85,4
DA:86,0
DA:87,4
DA:89,0
DA:90,7
DA:91,7
DA:92,1
DA:93,1
DA:94,0
DA:95,0
DA:96,4
DA:97,1
DA:98,0
DA:99,7
DA:100,0
DA:101,4
DA:102,4
DA:103,3
DA:104,1
DA:105,0
DA:106,0
DA:107,0
DA:108,4
DA:109,0
DA:110,4
DA:174,0
DA:175,14
DA:176,14
DA:177,14
DA:179,0
DA:180,14
DA:181,14
DA:182,14
DA:183,14
DA:184,0
DA:185,14
DA:186,14
DA:187,14
DA:188,29
DA:189,29
DA:190,11
DA:191,10
DA:192,18
DA:193,0
DA:194,13
DA:195,14
DA:198,0
DA:199,8
DA:200,8
DA:201,8
DA:202,8
DA:203,8
DA:204,8
DA:205,8
DA:206,8
DA:207,8
DA:208,8
DA:209,8
DA:210,8
DA:211,8
DA:212,0
DA:213,0
DA:214,0
DA:215,8
DA:217,0
DA:218,7
DA:219,12
DA:220,7
DA:221,7
DA:222,7
DA:223,7
DA:224,7
DA:225,0
DA:226,8
DA:227,24
DA:228,95
DA:229,111
DA:230,54
DA:231,24
DA:232,24
DA:233,0
DA:234,8
DA:235,8
DA:236,36
DA:237,67
DA:238,26
DA:239,26
DA:240,0
DA:241,8
DA:242,8
DA:243,0
DA:244,6
DA:245,12
DA:246,24
DA:247,31
DA:248,12
DA:249,12
DA:250,12
DA:251,0
DA:252,6
DA:253,6
DA:254,6
DA:255,1
DA:256,5
DA:257,0
DA:258,5
DA:259,5
DA:260,8
DA:261,5
DA:262,0
DA:263,5
DA:264,4
DA:265,0
DA:266,1
DA:267,0
DA:268,6
DA:280,0
DA:281,6
DA:282,6
DA:283,6
DA:284,6
DA:285,6
DA:286,6
DA:287,6
DA:288,6
DA:289,6
DA:291,0
DA:292,6
DA:293,2
DA:294,2
DA:295,2
DA:296,4
DA:298,0
DA:299,4
DA:300,4
DA:302,0
DA:303,4
DA:304,24
DA:306,0
DA:307,4
DA:308,17
DA:309,0
DA:310,4
DA:311,4
DA:315,0
DA:316,4
DA:317,4
DA:318,4
DA:319,4
DA:320,4
DA:321,0
DA:322,4
DA:323,3
DA:324,3
DA:325,3
DA:326,3
DA:327,3
DA:328,3
DA:329,3
DA:330,1
DA:331,0
DA:332,1
DA:333,6
DA:342,0
DA:343,13
DA:344,13
DA:345,13
DA:346,13
DA:347,13
DA:348,13
DA:349,13
DA:351,0
DA:352,12
DA:353,4
DA:354,8
DA:355,0
DA:356,8
DA:357,8
DA:358,0
DA:359,8
DA:360,8
DA:361,8
DA:362,8
DA:363,6
DA:364,6
DA:365,0
DA:366,6
DA:367,8
DA:368,0
DA:369,8
DA:370,0
DA:371,3
DA:372,0
DA:373,0
DA:374,0
DA:375,3
DA:376,3
DA:377,5
DA:378,0
DA:379,5
DA:380,5
DA:381,5
DA:382,5
DA:383,5
DA:384,5
DA:385,3
DA:386,2
DA:387,1
DA:388,0
DA:389,1
DA:390,0
DA:391,4
DA:392,4
DA:393,0
DA:394,4
DA:395,0
DA:396,4
DA:397,4
DA:398,4
DA:399,4
DA:400,1
DA:401,1
DA:402,0
DA:403,1
DA:404,0
DA:405,1
DA:406,1
DA:407,1
DA:408,1
DA:409,1
DA:410,1
DA:411,0
DA:412,1
DA:413,13
DA:414,0
DA:415,4
DA:416,4
DA:417,4
DA:418,4
DA:419,4
DA:420,4
DA:421,4
DA:422,18
DA:423,18
DA:424,8
DA:425,10
DA:426,18
DA:427,0
DA:428,4
DA:429,0
DA:430,4
DA:431,3
DA:432,3
DA:433,3
DA:434,3
DA:435,4
DA:436,3
DA:437,3
DA:438,0
DA:439,4
DA:440,4
DA:441,8
DA:442,8
DA:443,8
DA:444,0
DA:445,4
DA:446,4
DA:447,0
DA:448,4
DA:449,4
DA:450,4
DA:451,4
DA:452,4
DA:453,4
DA:454,4
DA:455,4
DA:456,4
DA:457,4
DA:458,4
DA:459,4
DA:460,4
DA:461,4
DA:462,4
DA:463,4
DA:464,0
DA:465,10
DA:466,10
DA:467,10
DA:468,10
DA:469,4
DA:470,4
DA:471,4
DA:472,10
DA:473,5
DA:474,1
DA:475,0
DA:476,4
DA:477,0
DA:478,10
DA:479,0
DA:480,2
DA:481,2
DA:482,2
DA:483,2
DA:484,2
DA:485,2
DA:486,2
DA:487,0
DA:488,0
DA:489,2
DA:490,0
DA:491,0
DA:492,0
DA:493,0
DA:494,0
DA:495,0
DA:496,2
DA:497,0
DA:498,2
DA:499,0
DA:500,14
DA:501,14
DA:502,14
DA:503,14
DA:504,14
DA:505,14
DA:506,8
DA:507,14
DA:508,0
DA:509,8
DA:510,6
DA:511,0
DA:512,6
DA:513,6
DA:514,6
DA:515,14
DA:516,0
DA:517,1
DA:518,1
DA:519,1
DA:520,0
DA:521,1
DA:522,1
DA:523,0
DA:524,1
DA:525,0
DA:526,1
DA:527,1
DA:528,1
DA:529,1
DA:530,1
DA:531,0
DA:532,0
DA:533,1
DA:534,0
DA:535,0
DA:536,1
DA:537,1
DA:538,1
DA:539,1
DA:540,1
DA:541,0
DA:542,0
DA:543,1
DA:544,0
DA:545,1
DA:546,1
DA:547,1
DA:548,1
DA:549,1
DA:550,1
DA:551,1
DA:552,1
DA:553,1
DA:554,1
DA:555,1
DA:556,1
DA:557,1
DA:558,0
DA:559,0
DA:560,0
DA:561,0
DA:562,1
DA:564,0
DA:565,1
DA:566,1
DA:567,0
DA:568,3
DA:569,3
DA:570,3
DA:571,3
DA:572,0
DA:573,3
DA:574,3
DA:575,0
DA:576,3
DA:577,0
DA:578,7
DA:579,7
DA:580,7
DA:581,7
DA:582,7
DA:583,0
DA:584,0
DA:585,7
DA:586,5
DA:587,0
DA:588,2
DA:589,2
DA:590,2
DA:591,2
DA:592,2
DA:593,0
DA:594,0
DA:595,2
DA:596,1
DA:597,1
DA:598,1
DA:599,1
DA:600,1
DA:601,1
DA:602,1
DA:603,1
DA:604,1
DA:605,1
DA:606,1
DA:607,1
DA:608,1
DA:609,1
DA:610,0
DA:611,0
DA:612,0
DA:613,0
DA:614,1
DA:616,0
DA:617,3
DA:618,3
DA:619,0
DA:620,3
DA:621,3
DA:622,3
DA:623,3
DA:624,0
DA:625,7
DA:626,7
DA:627,6
DA:628,1
DA:629,1
DA:630,1
DA:631,1
DA:632,0
DA:633,0
DA:634,0
DA:635,1
DA:636,1
DA:637,1
DA:638,1
DA:639,1
DA:640,1
DA:641,0
DA:642,1
DA:643,1
DA:644,1
DA:645,1
DA:646,1
DA:647,1
DA:648,1
DA:649,1
DA:650,0
DA:651,0
DA:652,1
DA:653,1
DA:654,1
DA:655,1
DA:656,1
DA:657,1
DA:658,0
DA:659,1
DA:660,0
DA:661,1
DA:662,1
DA:663,1
DA:664,1
DA:665,1
DA:666,1
DA:667,1
DA:668,0
DA:669,0
DA:670,1
DA:671,0
DA:672,1
DA:673,1
DA:674,1
DA:675,1
DA:676,1
DA:677,1
DA:678,0
DA:679,0
DA:681,0
DA:682,3
DA:683,3
DA:685,0
DA:686,4
DA:687,4
DA:688,4
DA:689,4
DA:690,4
DA:691,4
DA:692,4
DA:693,4
DA:694,4
DA:695,4
DA:696,4
DA:697,4
DA:698,4
DA:699,4
DA:700,4
DA:701,0
DA:702,0
DA:703,4
DA:704,4
DA:705,4
DA:706,0
DA:707,4
DA:708,4
DA:709,4
DA:710,4
DA:711,0
DA:712,0
DA:713,4
DA:714,4
DA:715,0
DA:716,0
DA:717,4
DA:718,4
DA:719,4
DA:720,0
DA:721,4
DA:722,4
DA:723,0
DA:724,4
DA:725,0
DA:726,4
DA:727,4
DA:728,4
DA:729,0
DA:730,0
DA:731,4
DA:733,0
DA:734,0
DA:735,0
DA:736,0
DA:737,0
DA:738,0
DA:739,0
DA:740,0
DA:741,0
DA:742,0
DA:743,0
DA:744,0
DA:745,0
DA:746,0
DA:748,0
DA:749,0
DA:750,0
DA:751,0
DA:752,0
DA:753,0
DA:754,0
DA:755,0
DA:756,0
DA:757,0
DA:758,0
DA:759,0
DA:760,0
DA:761,0
DA:762,0
DA:763,0
DA:764,0
DA:765,0
DA:766,0
DA:767,0
DA:770,0
DA:771,0
DA:772,0
DA:773,0
DA:774,0
DA:775,0
DA:777,0
DA:778,0
DA:779,0
DA:780,0
DA:781,0
DA:782,0
DA:783,0
DA:784,4
DA:786,0
DA:787,1
DA:788,1
DA:789,1
DA:790,1
DA:791,1
DA:792,1
DA:793,1
DA:794,1
DA:795,1
DA:796,1
DA:797,1
DA:798,1
DA:799,1
DA:800,1
DA:801,1
DA:802,1
DA:803,1
DA:804,1
DA:805,1
DA:806,1
DA:807,1
DA:808,1
DA:809,1
DA:810,1
DA:811,0
DA:812,1
DA:813,3
DA:814,3
DA:815,3
DA:816,3
DA:817,3
DA:818,0
DA:819,1
DA:820,0
DA:821,1
DA:822,0
DA:823,1
DA:824,1
DA:825,3
DA:826,3
DA:827,3
DA:828,0
DA:829,0
DA:830,3
DA:831,3
DA:832,3
DA:833,3
DA:834,0
DA:835,0
DA:836,0
DA:837,3
DA:838,0
DA:839,3
DA:840,3
DA:841,3
DA:842,3
DA:843,3
DA:844,3
DA:845,3
DA:846,3
DA:847,3
DA:848,0
DA:849,0
DA:850,0
DA:851,0
DA:852,0
DA:853,0
DA:854,3
DA:855,3
DA:856,1
DA:857,1
DA:858,2
DA:860,0
DA:861,1
DA:862,1
DA:863,0
DA:864,1
DA:865,1
DA:866,1
DA:867,1
DA:868,1
DA:869,1
DA:870,1
DA:871,1
DA:872,1
DA:873,1
DA:874,1
DA:875,0
DA:876,0
DA:877,1
DA:878,0
DA:879,0
DA:880,0
DA:881,0
DA:882,0
DA:884,0
DA:885,0
DA:886,0
DA:887,0
DA:888,0
DA:889,0
DA:890,0
DA:891,0
DA:892,0
DA:893,0
DA:894,0
DA:895,0
DA:896,0
DA:897,0
DA:898,0
DA:899,0
DA:900,0
DA:901,0
DA:902,0
DA:903,0
DA:904,1
DA:908,0
DA:909,16
DA:910,16
DA:911,16
DA:912,16
DA:913,16
DA:914,16
DA:915,16
DA:916,16
DA:917,16
DA:918,16
DA:919,16
DA:920,16
DA:921,16
DA:922,16
DA:923,16
DA:924,15
DA:925,1
DA:926,14
DA:928,0
DA:929,1
DA:930,0
DA:931,1
DA:935,0
DA:936,16
DA:937,16
DA:938,16
DA:939,0
DA:940,0
DA:942,0
DA:943,16
DA:944,11
DA:945,4
DA:946,4
DA:947,7
DA:948,7
DA:949,7
DA:950,0
DA:951,11
DA:953,0
DA:954,5
DA:955,5
DA:956,5
DA:957,5
DA:958,0
DA:959,0
DA:961,0
DA:962,5
DA:963,2
DA:964,2
DA:965,3
DA:966,1
DA:967,0
DA:968,0
DA:969,1
DA:970,1
DA:971,1
DA:972,0
DA:973,0
DA:974,1
DA:975,2
DA:976,0
DA:977,2
DA:978,2
DA:979,2
DA:980,2
DA:981,2
DA:982,0
DA:983,0
DA:984,2
DA:986,0
DA:987,16
DA:999,0
DA:1000,14
DA:1001,14
DA:1002,14
DA:1003,14
DA:1004,14
DA:1005,14
DA:1006,14
DA:1007,14
DA:1008,0
DA:1009,14
DA:1010,32
DA:1011,13
DA:1012,0
DA:1013,13
DA:1014,13
DA:1015,0
DA:1016,13
DA:1017,13
DA:1018,1
DA:1019,1
DA:1020,0
DA:1021,1
DA:1022,0
DA:1023,7
DA:1024,8
DA:1025,8
DA:1026,8
DA:1027,8
DA:1028,0
DA:1029,1
DA:1030,1
DA:1031,1
DA:1032,0
DA:1033,1
DA:1034,0
DA:1035,3
DA:1036,3
DA:1037,0
DA:1038,3
DA:1039,3
DA:1040,0
DA:1041,3
DA:1042,2
DA:1043,2
DA:1044,2
DA:1045,2
DA:1046,2
DA:1047,2
DA:1048,2
DA:1049,2
DA:1050,2
DA:1051,2
DA:1052,2
DA:1053,0
DA:1054,0
DA:1055,2
DA:1056,0
DA:1057,0
DA:1058,0
DA:1059,0
DA:1060,0
DA:1061,0
DA:1062,0
DA:1063,2
DA:1064,2
DA:1065,2
DA:1066,2
DA:1067,2
DA:1068,2
DA:1069,2
DA:1070,0
DA:1071,0
DA:1072,2
DA:1073,0
DA:1074,0
DA:1075,0
DA:1076,0
DA:1077,0
DA:1078,0
DA:1079,0
DA:1080,2
DA:1081,2
DA:1082,0
DA:1083,2
DA:1084,0
DA:1085,1
DA:1086,1
DA:1087,0
DA:1088,1
DA:1091,0
DA:1092,0
DA:1093,0
DA:1094,0
DA:1095,0
DA:1096,0
DA:1097,0
DA:1098,0
DA:1099,0
DA:1100,0
DA:1101,0
DA:1102,0
DA:1103,0
DA:1104,0
DA:1105,0
DA:1106,0
DA:1107,0
DA:1108,0
DA:1109,0
DA:1110,0
DA:1111,0
DA:1112,0
DA:1113,0
DA:1114,0
DA:1115,0
DA:1116,0
DA:1117,0
DA:1118,0
DA:1119,0
DA:1120,0
DA:1121,0
DA:1122,0
DA:1123,0
DA:1124,0
DA:1125,0
DA:1126,0
DA:1127,0
DA:1128,0
DA:1129,0
DA:1130,0
DA:1131,0
DA:1132,0
DA:1133,0
DA:1134,0
DA:1135,0
DA:1136,0
DA:1137,0
DA:1138,0
DA:1139,0
DA:1140,0
DA:1141,0
DA:1142,0
DA:1143,0
DA:1144,0
DA:1145,0
DA:1146,0
DA:1151,0
DA:1152,13
DA:1153,6
DA:1154,6
DA:1155,6
DA:1156,7
DA:1157,0
DA:1158,13
DA:1159,0
DA:1160,13
DA:1161,0
DA:1162,13
DA:1163,14
DA:1164,0
DA:1165,15
DA:1166,15
DA:1167,15
DA:1168,0
DA:1169,19
DA:1170,19
DA:1171,3
DA:1172,0
DA:1173,3
DA:1174,0
DA:1175,3
DA:1176,16
DA:1177,0
DA:1178,16
DA:1181,0
DA:1182,16
DA:1183,16
DA:1184,16
DA:1185,1
DA:1186,1
DA:1187,1
DA:1188,0
DA:1189,15
DA:1192,0
DA:1193,16
DA:1194,16
DA:1195,16
DA:1196,16
DA:1197,16
DA:1198,16
DA:1199,0
DA:1200,16
DA:1201,13
DA:1202,0
DA:1203,3
DA:1204,3
DA:1205,3
DA:1206,3
DA:1208,0
DA:1209,16
DA:1211,0
DA:1212,16
DA:1213,16
DA:1214,0
DA:1215,16
DA:1216,0
DA:1217,16
DA:1218,15
DA:1219,15
DA:1220,14
DA:1221,0
DA:1222,1
DA:1223,1
DA:1226,0
DA:1227,14
DA:1228,0
DA:1229,13
DA:1230,13
DA:1231,0
DA:1232,13
DA:1233,13
DA:1234,13
DA:1235,13
DA:1236,0
DA:1237,13
DA:1238,13
DA:1239,0
DA:1240,13
DA:1241,19
DA:1242,19
DA:1243,6
DA:1244,0
DA:1245,9
DA:1246,9
DA:1247,9
DA:1249,0
DA:1250,9
DA:1251,7
DA:1252,7
DA:1253,7
DA:1254,0
DA:1255,7
DA:1256,3
DA:1257,3
DA:1258,0
DA:1259,3
DA:1260,4
DA:1261,4
DA:1262,4
DA:1263,0
DA:1264,4
DA:1265,4
DA:1266,4
DA:1267,4
DA:1268,4
DA:1269,4
DA:1271,0
DA:1272,4
DA:1273,4
DA:1274,4
DA:1275,0
DA:1276,0
DA:1277,0
DA:1278,0
DA:1279,0
DA:1280,0
DA:1281,0
DA:1282,4
DA:1283,0
DA:1284,4
DA:1285,0
DA:1286,0
DA:1287,0
DA:1288,0
DA:1289,0
DA:1290,0
DA:1291,0
DA:1292,0
DA:1293,0
DA:1294,0
DA:1295,0
DA:1296,0
DA:1297,0
DA:1298,0
DA:1299,0
DA:1300,0
DA:1301,0
DA:1302,0
DA:1303,0
DA:1304,0
DA:1305,0
DA:1306,4
DA:1307,4
DA:1308,0
DA:1309,0
DA:1310,4
DA:1312,0
DA:1313,4
DA:1314,4
DA:1315,4
DA:1316,4
DA:1317,4
DA:1318,4
DA:1319,4
DA:1320,0
DA:1321,0
DA:1322,4
DA:1324,0
DA:1325,7
DA:1326,2
DA:1329,0
DA:1330,2
DA:1331,3
DA:1332,3
DA:1334,0
DA:1335,3
DA:1336,1
DA:1337,1
DA:1338,2
DA:1339,1
DA:1340,0
DA:1341,2
DA:1342,1
DA:1343,0
DA:1344,1
DA:1345,1
DA:1346,1
DA:1347,1
DA:1348,1
DA:1349,1
DA:1350,0
DA:1351,0
DA:1352,1
DA:1353,1
DA:1354,0
DA:1355,0
DA:1356,1
DA:1357,1
DA:1358,0
DA:1359,1
DA:1360,0
DA:1361,1
DA:1362,0
DA:1363,1
DA:1364,0
DA:1365,1
DA:1367,0
DA:1368,2
DA:1369,2
DA:1370,2
DA:1371,2
DA:1373,0
DA:1374,2
DA:1375,1
DA:1376,1
DA:1377,1
DA:1378,1
DA:1379,0
DA:1380,1
DA:1381,1
DA:1382,0
DA:1383,1
DA:1384,1
DA:1385,1
DA:1386,1
DA:1387,1
DA:1388,1
DA:1389,0
DA:1390,0
DA:1391,1
DA:1392,1
DA:1393,1
DA:1394,0
DA:1395,1
DA:1396,1
DA:1397,0
DA:1398,1
DA:1399,0
DA:1400,1
DA:1401,0
DA:1402,1
DA:1403,0
DA:1404,1
DA:1406,0
DA:1407,2
DA:1408,2
DA:1409,2
DA:1410,2
DA:1411,0
DA:1412,0
DA:1413,0
DA:1415,0
DA:1416,2
DA:1417,1
DA:1418,1
DA:1419,0
DA:1420,1
DA:1421,0
DA:1422,1
DA:1423,1
DA:1424,1
DA:1425,1
DA:1426,1
DA:1427,1
DA:1428,0
DA:1429,0
DA:1430,1
DA:1431,1
DA:1432,0
DA:1433,0
DA:1434,1
DA:1435,1
DA:1436,1
DA:1437,1
DA:1438,1
DA:1439,0
DA:1440,0
DA:1441,1
DA:1446,0
DA:1447,13
DA:1448,7
DA:1449,7
DA:1450,7
DA:1451,3
DA:1452,3
DA:1453,7
DA:1455,0
DA:1456,7
DA:1457,7
DA:1458,7
DA:1459,1
DA:1460,0
DA:1461,1
DA:1462,1
DA:1463,1
DA:1464,1
DA:1465,1
DA:1466,6
DA:1467,0
DA:1468,7
DA:1469,7
DA:1470,7
DA:1471,7
DA:1472,7
DA:1473,7
DA:1474,7
DA:1475,7
DA:1476,0
DA:1477,0
DA:1478,7
DA:1479,0
DA:1480,7
DA:1481,0
DA:1483,0
DA:1484,13
DA:1485,6
DA:1486,7
DA:1487,5
DA:1488,5
DA:1489,2
DA:1490,2
DA:1491,2
DA:1492,2
DA:1493,2
DA:1494,2
DA:1496,0
DA:1497,16
DA:1498,4
DA:1499,12
DA:1500,0
DA:1501,16
DA:1502,19
DA:1510,20
DA:1511,20
DA:1512,20
DA:1517,1
DA:1518,1
DA:1519,1
DA:1520,1
DA:1523,1
DA:1524,1
DA:1525,1
DA:1526,1
DA:1529,1
DA:1530,1
DA:1532,1
DA:1533,1
DA:1536,1
DA:1539,1
DA:1540,1
DA:1541,1
DA:1546,1
DA:1547,1
DA:1548,1
DA:1549,1
DA:1550,1
DA:1553,1
DA:1554,1
DA:1555,1
DA:1556,1
DA:1557,1
DA:1562,1
DA:1564,1
DA:1565,1
DA:1566,1
DA:1569,1
DA:1570,1
DA:1571,1
DA:1572,1
DA:1577,1
DA:1578,1
DA:1579,1
DA:1580,1
DA:1583,1
DA:1584,1
DA:1585,1
DA:1586,1
DA:1589,1
DA:1590,1
DA:1591,1
DA:1592,1
DA:1597,1
DA:1598,1
DA:1600,1
DA:1601,1
DA:1602,1
DA:1605,1
DA:1606,1
DA:1607,1
DA:1608,1
DA:1609,1
DA:1612,1
DA:1615,1
DA:1616,1
DA:1617,1
DA:1622,1
DA:1623,1
DA:1624,1
DA:1627,1
DA:1631,1
DA:1632,1
DA:1633,1
DA:1634,1
DA:1639,1
DA:1641,1
DA:1642,1
DA:1643,1
DA:1646,1
DA:1647,1
DA:1648,1
DA:1649,1
DA:1652,1
DA:1654,1
DA:1655,1
DA:1656,1
DA:1657,1
DA:1660,1
DA:1661,1
DA:1664,1
DA:1665,1
DA:1666,1
DA:1667,1
DA:1672,1
DA:1673,1
DA:1674,1
DA:1675,1
DA:1676,1
DA:1681,1
DA:1682,1
DA:1683,1
DA:1684,1
DA:1685,1
DA:1686,1
DA:1687,1
DA:1688,1
DA:1691,1
DA:1692,1
DA:1693,1
DA:1694,1
DA:1695,1
DA:1699,1
DA:1700,1
DA:1701,1
DA:1702,1
DA:1703,1
DA:1704,1
DA:1709,1
DA:1710,1
DA:1711,1
DA:1712,1
DA:1715,1
DA:1716,1
DA:1717,1
DA:1718,1
DA:1723,1
DA:1725,1
DA:1726,1
DA:1727,1
DA:1728,1
DA:1729,1
DA:1732,1
DA:1733,1
DA:1734,1
DA:1735,1
DA:1736,1
DA:1737,1
DA:1740,1
DA:1741,1
DA:1742,1
DA:1743,1
DA:1744,1
DA:1745,1
DA:1750,1
DA:1751,1
DA:1752,1
DA:1753,1
DA:1754,1
DA:1755,1
DA:1756,1
DA:1757,1
DA:1758,1
DA:1759,1
DA:1760,1
DA:1761,1
DA:1762,1
DA:1765,1
DA:1766,1
DA:1767,1
DA:1768,1
DA:1769,1
DA:1770,1
DA:1771,1
DA:1772,1
DA:1773,1
DA:1774,1
DA:1775,1
DA:1778,1
DA:1779,1
DA:1780,1
DA:1781,1
DA:1782,1
DA:1783,1
DA:1784,1
DA:1785,1
DA:1786,1
DA:1787,1
DA:1788,1
DA:1789,1
DA:1792,1
DA:1793,1
DA:1794,1
DA:1795,1
DA:1796,1
DA:1797,1
DA:1798,1
DA:1799,1
DA:1800,1
DA:1801,1
DA:1802,1
DA:1803,1
DA:1808,1
DA:1809,1
DA:1810,1
DA:1811,1
DA:1812,1
DA:1817,1
DA:1818,1
DA:1819,1
DA:1820,1
DA:1821,1
DA:1823,1
DA:1824,1
DA:1825,1
DA:1826,1
DA:1829,1
DA:1830,1
DA:1831,1
DA:1832,1
DA:1834,1
DA:1835,1
DA:1838,1
DA:1839,1
DA:1840,1
DA:1841,1
DA:1846,1
DA:1848,1
DA:1849,1
DA:1850,1
DA:1851,1
DA:1852,1
DA:1853,1
DA:1854,1
DA:1855,1
DA:1856,1
DA:1857,1
DA:1858,1
DA:1859,1
DA:1860,1
DA:1865,1
DA:1870,1
DA:1871,1
DA:1872,1
DA:1873,1
DA:1876,1
DA:1877,1
DA:1878,1
DA:1879,1
DA:1880,1
DA:1883,1
DA:1885,1
DA:1886,1
DA:1887,1
DA:1894,27
DA:1895,27
DA:1897,27
DA:1898,27
DA:1900,27
DA:1901,27
DA:1902,27
DA:1903,27
DA:1904,28
DA:1905,28
DA:1906,28
DA:1907,28
DA:1908,28
DA:1909,28
DA:1910,28
DA:1911,26
DA:1912,26
DA:1913,26
DA:1916,27
DA:1917,27
DA:1918,27
DA:1922,1
DA:1923,1
DA:1924,1
DA:1925,1
DA:1926,1
DA:1927,1
DA:1928,1
DA:1929,1
DA:1930,1
DA:1931,1
DA:1932,1
DA:1933,1
DA:1934,1
DA:1935,1
DA:1938,1
DA:1939,1
DA:1940,1
DA:1941,1
DA:1942,1
DA:1944,1
DA:1945,1
DA:1946,1
DA:1947,1
DA:1948,1
DA:1949,1
DA:1950,1
DA:1951,1
DA:1952,1
DA:1953,1
DA:1954,1
DA:1955,1
DA:1958,1
DA:1959,1
DA:1960,1
DA:1961,1
DA:1963,1
DA:1964,1
DA:1965,1
DA:1966,1
DA:1967,1
DA:1968,1
DA:1969,1
DA:1970,1
DA:1971,1
DA:1972,1
DA:1973,1
DA:1974,1
DA:1977,1
DA:1978,1
DA:1979,1
DA:1980,1
DA:1981,1
DA:1983,1
DA:1984,1
DA:1985,1
DA:1986,1
DA:1987,1
DA:1988,1
DA:1989,1
DA:1990,1
DA:1991,1
DA:1992,1
DA:1993,1
DA:1994,1
DA:1995,1
DA:2000,1
DA:2001,1
DA:2002,1
DA:2003,1
DA:2004,1
DA:2006,1
DA:2007,1
DA:2008,1
DA:2009,1
DA:2011,1
DA:2012,1
DA:2013,1
DA:2014,1
DA:2015,1
DA:2017,0
DA:2019,1
DA:2022,1
DA:2023,1
DA:2024,1
DA:2025,1
DA:2026,1
DA:2028,1
DA:2029,1
DA:2030,1
DA:2031,1
DA:2033,1
DA:2034,1
DA:2035,1
DA:2036,1
DA:2038,0
DA:2040,1
DA:2045,1
DA:2046,1
DA:2047,1
DA:2048,1
DA:2049,1
DA:2050,1
DA:2052,1
DA:2053,1
DA:2055,1
DA:2056,1
DA:2061,1
DA:2062,1
DA:2063,1
DA:2064,1
DA:2065,1
DA:2066,1
DA:2067,1
DA:2068,1
DA:2069,1
DA:2070,1
DA:2072,1
DA:2073,1
DA:2074,1
DA:2076,1
DA:2077,1
DA:2078,1
DA:2079,1
DA:2080,1
DA:2081,1
DA:2082,1
DA:2083,1
DA:2084,1
DA:2085,1
DA:2086,1
DA:2088,1
DA:2089,1
DA:2090,1
DA:2091,1
DA:2092,1
DA:2095,1
DA:2096,1
DA:2097,1
DA:2098,1
DA:2099,1
DA:2100,1
DA:2101,1
DA:2102,1
DA:2103,1
DA:2104,1
DA:2106,1
DA:2107,1
DA:2108,1
DA:2110,1
DA:2111,1
DA:2112,1
DA:2113,1
DA:2114,1
DA:2115,1
DA:2116,1
DA:2117,1
DA:2118,1
DA:2119,1
DA:2120,1
DA:2121,1
DA:2123,1
DA:2124,1
DA:2125,1
DA:2126,1
DA:2129,1
DA:2130,1
DA:2131,1
DA:2134,1
DA:2135,1
DA:2136,1
DA:2138,1
DA:2139,1
DA:2140,1
DA:2141,1
DA:2142,1
DA:2143,1
DA:2144,1
DA:2145,1
DA:2146,1
DA:2147,1
DA:2149,1
DA:2150,1
DA:2151,1
DA:2152,1
DA:2157,1
DA:2158,1
DA:2159,1
DA:2160,1
DA:2162,1
DA:2163,1
DA:2164,1
DA:2165,1
DA:2166,1
DA:2167,1
DA:2168,1
DA:2169,1
DA:2170,1
DA:2171,1
DA:2172,1
DA:2173,1
DA:2174,1
DA:2175,1
DA:2176,1
DA:2177,1
DA:2178,1
DA:2179,1
DA:2180,1
DA:2182,1
DA:2183,1
DA:2184,1
DA:2186,1
DA:2187,1
DA:2188,1
DA:2189,1
DA:2192,1
DA:2193,1
DA:2194,1
DA:2195,1
DA:2197,1
DA:2198,1
DA:2199,1
DA:2200,1
DA:2201,1
DA:2202,1
DA:2203,1
DA:2204,1
DA:2205,1
DA:2206,1
DA:2207,1
DA:2208,1
DA:2209,1
DA:2210,1
DA:2211,1
DA:2212,1
DA:2213,1
DA:2214,1
DA:2215,1
DA:2217,1
DA:2218,1
DA:2219,1
DA:2221,1
DA:2222,1
DA:2223,1
DA:2224,1
DA:2225,1
DA:2228,1
DA:2229,1
DA:2230,1
DA:2231,1
DA:2233,1
DA:2234,1
DA:2235,1
DA:2236,1
DA:2237,1
DA:2238,1
DA:2239,1
DA:2240,1
DA:2241,1
DA:2242,1
DA:2243,1
DA:2244,1
DA:2245,1
DA:2246,1
DA:2247,1
DA:2248,1
DA:2249,1
DA:2250,1
DA:2251,1
DA:2253,1
DA:2254,1
DA:2255,1
DA:2257,1
DA:2258,1
DA:2261,1
DA:2262,1
DA:2263,1
DA:2268,1
DA:2269,1
DA:2270,1
DA:2272,1
DA:2273,1
DA:2276,1
DA:2278,1
DA:2279,1
DA:2280,1
DA:2281,1
DA:2282,1
DA:2283,1
DA:2284,1
DA:2285,1
DA:2288,1
DA:2289,1
DA:2290,1
DA:2291,1
DA:2294,1
DA:2295,1
DA:2296,1
DA:2298,1
DA:2299,1
DA:2300,1
DA:2301,1
DA:2302,1
DA:2303,1
DA:2304,1
DA:2305,1
DA:2306,1
DA:2307,1
DA:2309,1
DA:2310,1
DA:2313,1
DA:2314,1
DA:2315,1
DA:2316,1
DA:2317,1
DA:2319,1
DA:2320,1
DA:2321,1
DA:2322,1
DA:2323,1
DA:2324,1
DA:2326,1
DA:2327,1
DA:2328,1
DA:2329,1
DA:2330,1
DA:2331,1
DA:2332,1
DA:2333,1
DA:2334,1
DA:2335,1
DA:2338,1
DA:2339,1
DA:2342,1
DA:2343,1
DA:2344,1
DA:2346,1
DA:2347,1
DA:2348,1
DA:2351,1
DA:2352,1
DA:2355,1
DA:2356,1
DA:2357,1
DA:2358,1
DA:2359,1
DA:2360,1
DA:2361,1
DA:2362,1
DA:2363,1
DA:2366,1
DA:2368,1
DA:2369,1
DA:2370,1
DA:2371,1
DA:2372,1
DA:2373,1
DA:2374,1
DA:2375,1
DA:2376,1
DA:2379,1
DA:2380,1
DA:2383,1
DA:2384,1
DA:2385,1
DA:2388,1
DA:2389,1
DA:2390,1
DA:2392,1
DA:2393,1
DA:2394,1
DA:2397,1
DA:2398,1
DA:2400,1
DA:2401,1
DA:2404,1
DA:2405,1
DA:2406,1
DA:2407,1
DA:2408,1
DA:2409,1
DA:2410,1
DA:2411,1
DA:2412,1
DA:2413,1
DA:2416,1
DA:2418,1
DA:2419,1
DA:2420,1
DA:2421,1
DA:2422,1
DA:2423,1
DA:2424,1
DA:2425,1
DA:2426,1
DA:2429,1
DA:2430,1
DA:2432,1
DA:2433,1
DA:2434,1
DA:2437,1
DA:2438,1
DA:2439,1
DA:2441,1
DA:2442,1
DA:2444,1
DA:2445,1
DA:2446,1
DA:2447,1
DA:2448,1
DA:2449,1
DA:2450,1
DA:2451,1
DA:2452,1
DA:2453,1
DA:2456,1
DA:2462,1
DA:2463,1
DA:2464,1
DA:2465,1
DA:2466,1
DA:2467,1
DA:2468,1
DA:2474,1
DA:2475,1
DA:2476,1
DA:2477,1
DA:2478,1
DA:2479,1
DA:2480,1
DA:2481,1
DA:2482,1
DA:2483,1
DA:2484,1
DA:2485,1
DA:2486,1
DA:2487,1
DA:2488,1
DA:2489,1
DA:2490,1
DA:2491,1
DA:2492,1
DA:2494,1
DA:2495,1
DA:2496,1
DA:2498,1
DA:2501,1
DA:2502,1
DA:2503,1
DA:2506,1
DA:2507,1
DA:2508,1
DA:2510,1
DA:2511,1
DA:2512,1
DA:2513,1
DA:2516,1
DA:2517,1
DA:2518,1
DA:2519,1
DA:2522,1
DA:2523,1
DA:2524,1
DA:2525,1
DA:2526,1
DA:2527,1
DA:2528,1
DA:2529,1
DA:2530,1
DA:2531,1
DA:2532,1
DA:2533,1
DA:2534,1
DA:2535,1
DA:2537,1
DA:2538,1
DA:2540,1
DA:2541,1
DA:2542,1
DA:2543,1
DA:2544,1
DA:2545,1
DA:2546,1
DA:2547,1
DA:2548,1
DA:2551,1
DA:2552,1
DA:2553,1
DA:2556,1
DA:2557,1
DA:2558,1
DA:2559,1
DA:2560,1
DA:2561,1
DA:2562,1
DA:2563,1
DA:2564,1
DA:2565,1
DA:2566,1
DA:2567,1
DA:2568,1
DA:2569,1
DA:2570,1
DA:2571,1
DA:2572,1
DA:2573,1
DA:2576,1
DA:2577,1
DA:2578,1
DA:2579,1
DA:2580,1
DA:2581,1
DA:2582,1
DA:2584,1
DA:2585,1
DA:2586,1
DA:2587,1
DA:2588,1
DA:2589,1
DA:2590,1
DA:2591,1
DA:2592,1
DA:2593,1
DA:2594,1
DA:2595,1
DA:2596,1
DA:2601,1
DA:2603,1
DA:2604,1
DA:2605,1
DA:2606,1
DA:2607,1
DA:2608,1
DA:2609,1
DA:2611,1
DA:2612,1
DA:2613,1
DA:2614,1
DA:2615,1
DA:2618,1
DA:2619,1
DA:2620,1
DA:2622,1
DA:2624,1
DA:2625,1
DA:2627,1
DA:2628,1
DA:2629,1
DA:2630,1
DA:2631,1
DA:2632,1
DA:2633,1
DA:2634,1
DA:2636,1
DA:2637,1
DA:2638,1
DA:2639,1
DA:2640,1
DA:2641,1
DA:2642,1
DA:2643,1
DA:2644,1
DA:2645,1
DA:2646,1
DA:2647,1
DA:2648,1
DA:2649,1
DA:2650,1
DA:2651,1
DA:2652,1
DA:2653,1
DA:2654,1
DA:2656,1
DA:2657,1
DA:2658,1
DA:2660,1
DA:2664,1
DA:2665,1
DA:2668,1
DA:2669,1
DA:2670,1
DA:2671,1
DA:2672,1
DA:2674,1
DA:2675,1
DA:2676,1
DA:2677,1
DA:2678,1
DA:2680,1
DA:2681,1
DA:2682,1
DA:2683,1
DA:2684,1
DA:2685,1
DA:2686,1
DA:2687,1
DA:2688,1
DA:2689,1
DA:2691,1
DA:2692,1
DA:2693,1
DA:2696,1
DA:2697,1
DA:2698,1
DA:2699,1
DA:2700,1
DA:2702,1
DA:2703,1
DA:2704,1
DA:2705,1
DA:2706,1
DA:2707,1
DA:2708,1
DA:2709,1
DA:2710,1
DA:2711,1
DA:2712,1
DA:2713,1
DA:2716,1
DA:2717,1
DA:2718,1
DA:2719,1
DA:2721,1
DA:2724,1
DA:2725,1
DA:2726,1
DA:2727,1
DA:2728,1
DA:2729,1
DA:2730,1
DA:2731,1
DA:2732,1
DA:2733,1
DA:2734,1
DA:2737,1
DA:2738,1
DA:2739,1
DA:2740,1
DA:2741,1
DA:2744,1
DA:2745,1
DA:2746,1
DA:2747,1
DA:2748,1
DA:2749,1
DA:2751,1
DA:2752,1
DA:2754,1
DA:2755,1
DA:2756,1
DA:2757,1
DA:2760,1
DA:2761,1
DA:2762,1
DA:2763,1
DA:2764,1
DA:2765,1
DA:2766,1
DA:2767,1
DA:2769,1
DA:2770,1
DA:2771,1
DA:2772,1
DA:2773,1
DA:2776,1
DA:2777,1
DA:2778,1
DA:2779,1
DA:2781,1
DA:2782,1
DA:2783,1
DA:2784,1
DA:2785,1
DA:2786,1
DA:2787,1
DA:2788,1
DA:2789,1
DA:2790,1
DA:2791,1
DA:2792,1
DA:2793,1
DA:2794,1
DA:2795,1
DA:2796,1
DA:2797,1
DA:2798,1
DA:2799,1
DA:2800,1
DA:2801,1
DA:2802,1
DA:2803,1
DA:2804,1
BRF:0
BRH:0
LF:3210
LH:1871
end_of_record
SF:/home/g4/_prj/weaveback/crates/weaveback-api/src/coverage.rs
FN:693,_RINvNtCsaY2CvWUtqiY_13weaveback_api8coverage25explain_unattributed_fileQNtNtNtCshbt5Cx3aOt7_3std2io5stdio6StdoutEB4_
FN:1278,_RINvNtCsaY2CvWUtqiY_13weaveback_api8coverage26emit_cargo_summary_messageQQNtNtNtCshbt5Cx3aOt7_3std2io5stdio10StdoutLockEB4_
FN:1246,_RINvNtCsaY2CvWUtqiY_13weaveback_api8coverage28emit_augmented_cargo_messageQQNtNtNtCshbt5Cx3aOt7_3std2io5stdio10StdoutLockEB4_
FN:1336,_RINvNtCsaY2CvWUtqiY_13weaveback_api8coverage29emit_text_attribution_messageQQNtNtNtCshbt5Cx3aOt7_3std2io5stdio10StdoutLockEB4_
FN:1378,_RINvNtCsaY2CvWUtqiY_13weaveback_api8coverage29run_cargo_annotated_to_writerQNtNtNtCshbt5Cx3aOt7_3std2io5stdio10StdoutLockEB4_
FN:731,_RINvNtCsaY2CvWUtqiY_13weaveback_api8coverage32print_coverage_summary_to_writerQNtNtNtCshbt5Cx3aOt7_3std2io5stdio6StdoutEB4_
FN:708,_RNCINvNtCsaY2CvWUtqiY_13weaveback_api8coverage25explain_unattributed_fileQNtNtNtCshbt5Cx3aOt7_3std2io5stdio6StdoutE0B6_
FN:1392,_RNCINvNtCsaY2CvWUtqiY_13weaveback_api8coverage29run_cargo_annotated_to_writerQNtNtNtCshbt5Cx3aOt7_3std2io5stdio10StdoutLockE0B6_
FN:1409,_RNCINvNtCsaY2CvWUtqiY_13weaveback_api8coverage29run_cargo_annotated_to_writerQNtNtNtCshbt5Cx3aOt7_3std2io5stdio10StdoutLockEs0_0B6_
FN:1422,_RNCINvNtCsaY2CvWUtqiY_13weaveback_api8coverage29run_cargo_annotated_to_writerQNtNtNtCshbt5Cx3aOt7_3std2io5stdio10StdoutLockEs1_0B6_
FN:1426,_RNCINvNtCsaY2CvWUtqiY_13weaveback_api8coverage29run_cargo_annotated_to_writerQNtNtNtCshbt5Cx3aOt7_3std2io5stdio10StdoutLockEs2_0B6_
FN:1433,_RNCINvNtCsaY2CvWUtqiY_13weaveback_api8coverage29run_cargo_annotated_to_writerQNtNtNtCshbt5Cx3aOt7_3std2io5stdio10StdoutLockEs3_0B6_
FN:1395,_RNCINvNtCsaY2CvWUtqiY_13weaveback_api8coverage29run_cargo_annotated_to_writerQNtNtNtCshbt5Cx3aOt7_3std2io5stdio10StdoutLockEs_0B6_
FN:761,_RNCINvNtCsaY2CvWUtqiY_13weaveback_api8coverage32print_coverage_summary_to_writerQNtNtNtCshbt5Cx3aOt7_3std2io5stdio6StdoutE0B6_
FN:768,_RNCINvNtCsaY2CvWUtqiY_13weaveback_api8coverage32print_coverage_summary_to_writerQNtNtNtCshbt5Cx3aOt7_3std2io5stdio6StdoutEs_0B6_
FN:764,_RNCNCINvNtCsaY2CvWUtqiY_13weaveback_api8coverage32print_coverage_summary_to_writerQNtNtNtCshbt5Cx3aOt7_3std2io5stdio6StdoutE00B8_
FN:542,_RNCNCNCNCNCNvNtCsaY2CvWUtqiY_13weaveback_api8coverage22build_coverage_summarysc_0s_0000Bd_
FN:552,_RNCNCNCNCNCNvNtCsaY2CvWUtqiY_13weaveback_api8coverage22build_coverage_summarysc_0s_00s_00Bd_
FN:539,_RNCNCNCNCNvNtCsaY2CvWUtqiY_13weaveback_api8coverage22build_coverage_summarysc_0s_000Bb_
FN:549,_RNCNCNCNCNvNtCsaY2CvWUtqiY_13weaveback_api8coverage22build_coverage_summarysc_0s_00s_0Bb_
FN:536,_RNCNCNCNvNtCsaY2CvWUtqiY_13weaveback_api8coverage22build_coverage_summarysc_0s_00B9_
FN:837,_RNCNCNCNvNtCsaY2CvWUtqiY_13weaveback_api8coverage27build_coverage_summary_view000B9_
FN:366,_RNCNCNvNtCsaY2CvWUtqiY_13weaveback_api8coverage22build_coverage_summarys1_00B7_
FN:455,_RNCNCNvNtCsaY2CvWUtqiY_13weaveback_api8coverage22build_coverage_summarys9_00B7_
FN:520,_RNCNCNvNtCsaY2CvWUtqiY_13weaveback_api8coverage22build_coverage_summarysc_00B7_
FN:533,_RNCNCNvNtCsaY2CvWUtqiY_13weaveback_api8coverage22build_coverage_summarysc_0s_0B7_
FN:574,_RNCNCNvNtCsaY2CvWUtqiY_13weaveback_api8coverage22build_coverage_summarysd_00B7_
FN:601,_RNCNCNvNtCsaY2CvWUtqiY_13weaveback_api8coverage22build_coverage_summarysf_00B7_
FN:833,_RNCNCNvNtCsaY2CvWUtqiY_13weaveback_api8coverage27build_coverage_summary_view00B7_
FN:1064,_RNCNCNvNtCsaY2CvWUtqiY_13weaveback_api8coverage31build_cargo_attribution_summarys2_00B7_
FN:1118,_RNCNCNvNtCsaY2CvWUtqiY_13weaveback_api8coverage31build_cargo_attribution_summarys4_00B7_
FN:1049,_RNCNCNvNtCsaY2CvWUtqiY_13weaveback_api8coverage31build_cargo_attribution_summarys_00B7_
FN:1160,_RNCNCNvNtCsaY2CvWUtqiY_13weaveback_api8coverage34build_location_attribution_summarys0_00B7_
FN:1175,_RNCNCNvNtCsaY2CvWUtqiY_13weaveback_api8coverage34build_location_attribution_summarys3_00B7_
FN:1221,_RNCNCNvNtCsaY2CvWUtqiY_13weaveback_api8coverage34build_location_attribution_summarys7_00B7_
FN:1230,_RNCNCNvNtCsaY2CvWUtqiY_13weaveback_api8coverage34build_location_attribution_summarys7_0s_0B7_
FN:1530,_RNCNvNtCsaY2CvWUtqiY_13weaveback_api8coverage10run_search0B5_
FN:212,_RNCNvNtCsaY2CvWUtqiY_13weaveback_api8coverage13run_attribute0B5_
FN:213,_RNCNvNtCsaY2CvWUtqiY_13weaveback_api8coverage13run_attributes_0B5_
FN:245,_RNCNvNtCsaY2CvWUtqiY_13weaveback_api8coverage18parse_lcov_records0B5_
FN:248,_RNCNvNtCsaY2CvWUtqiY_13weaveback_api8coverage18parse_lcov_recordss_0B5_
FN:323,_RNCNvNtCsaY2CvWUtqiY_13weaveback_api8coverage22build_coverage_summary0B5_
FN:327,_RNCNvNtCsaY2CvWUtqiY_13weaveback_api8coverage22build_coverage_summarys0_0B5_
FN:365,_RNCNvNtCsaY2CvWUtqiY_13weaveback_api8coverage22build_coverage_summarys1_0B5_
FN:381,_RNCNvNtCsaY2CvWUtqiY_13weaveback_api8coverage22build_coverage_summarys2_0B5_
FN:382,_RNCNvNtCsaY2CvWUtqiY_13weaveback_api8coverage22build_coverage_summarys3_0B5_
FN:420,_RNCNvNtCsaY2CvWUtqiY_13weaveback_api8coverage22build_coverage_summarys4_0B5_
FN:421,_RNCNvNtCsaY2CvWUtqiY_13weaveback_api8coverage22build_coverage_summarys5_0B5_
FN:425,_RNCNvNtCsaY2CvWUtqiY_13weaveback_api8coverage22build_coverage_summarys6_0B5_
FN:426,_RNCNvNtCsaY2CvWUtqiY_13weaveback_api8coverage22build_coverage_summarys7_0B5_
FN:451,_RNCNvNtCsaY2CvWUtqiY_13weaveback_api8coverage22build_coverage_summarys8_0B5_
FN:452,_RNCNvNtCsaY2CvWUtqiY_13weaveback_api8coverage22build_coverage_summarys9_0B5_
FN:326,_RNCNvNtCsaY2CvWUtqiY_13weaveback_api8coverage22build_coverage_summarys_0B5_
FN:467,_RNCNvNtCsaY2CvWUtqiY_13weaveback_api8coverage22build_coverage_summarysa_0B5_
FN:503,_RNCNvNtCsaY2CvWUtqiY_13weaveback_api8coverage22build_coverage_summarysb_0B5_
FN:516,_RNCNvNtCsaY2CvWUtqiY_13weaveback_api8coverage22build_coverage_summarysc_0B5_
FN:571,_RNCNvNtCsaY2CvWUtqiY_13weaveback_api8coverage22build_coverage_summarysd_0B5_
FN:583,_RNCNvNtCsaY2CvWUtqiY_13weaveback_api8coverage22build_coverage_summaryse_0B5_
FN:598,_RNCNvNtCsaY2CvWUtqiY_13weaveback_api8coverage22build_coverage_summarysf_0B5_
FN:658,_RNCNvNtCsaY2CvWUtqiY_13weaveback_api8coverage23compute_unmapped_ranges0B5_
FN:61,_RNCNvNtCsaY2CvWUtqiY_13weaveback_api8coverage24parse_generated_location0B5_
FN:75,_RNCNvNtCsaY2CvWUtqiY_13weaveback_api8coverage24parse_generated_locations0_0B5_
FN:81,_RNCNvNtCsaY2CvWUtqiY_13weaveback_api8coverage24parse_generated_locations1_0B5_
FN:89,_RNCNvNtCsaY2CvWUtqiY_13weaveback_api8coverage24parse_generated_locations2_0B5_
FN:67,_RNCNvNtCsaY2CvWUtqiY_13weaveback_api8coverage24parse_generated_locations_0B5_
FN:117,_RNCNvNtCsaY2CvWUtqiY_13weaveback_api8coverage24scan_generated_locations0B5_
FN:1013,_RNCNvNtCsaY2CvWUtqiY_13weaveback_api8coverage24trace_generated_location0B5_
FN:828,_RNCNvNtCsaY2CvWUtqiY_13weaveback_api8coverage27build_coverage_summary_view0B5_
FN:863,_RNCNvNtCsaY2CvWUtqiY_13weaveback_api8coverage27build_coverage_summary_views0_0B5_
FN:864,_RNCNvNtCsaY2CvWUtqiY_13weaveback_api8coverage27build_coverage_summary_views1_0B5_
FN:851,_RNCNvNtCsaY2CvWUtqiY_13weaveback_api8coverage27build_coverage_summary_views_0B5_
FN:1048,_RNCNvNtCsaY2CvWUtqiY_13weaveback_api8coverage31build_cargo_attribution_summary0B5_
FN:1055,_RNCNvNtCsaY2CvWUtqiY_13weaveback_api8coverage31build_cargo_attribution_summarys0_0B5_
FN:1060,_RNCNvNtCsaY2CvWUtqiY_13weaveback_api8coverage31build_cargo_attribution_summarys1_0B5_
FN:1061,_RNCNvNtCsaY2CvWUtqiY_13weaveback_api8coverage31build_cargo_attribution_summarys2_0B5_
FN:1096,_RNCNvNtCsaY2CvWUtqiY_13weaveback_api8coverage31build_cargo_attribution_summarys3_0B5_
FN:1111,_RNCNvNtCsaY2CvWUtqiY_13weaveback_api8coverage31build_cargo_attribution_summarys4_0B5_
FN:1049,_RNCNvNtCsaY2CvWUtqiY_13weaveback_api8coverage31build_cargo_attribution_summarys_0B5_
FN:1153,_RNCNvNtCsaY2CvWUtqiY_13weaveback_api8coverage34build_location_attribution_summary0B5_
FN:1160,_RNCNvNtCsaY2CvWUtqiY_13weaveback_api8coverage34build_location_attribution_summarys0_0B5_
FN:1166,_RNCNvNtCsaY2CvWUtqiY_13weaveback_api8coverage34build_location_attribution_summarys1_0B5_
FN:1171,_RNCNvNtCsaY2CvWUtqiY_13weaveback_api8coverage34build_location_attribution_summarys2_0B5_
FN:1172,_RNCNvNtCsaY2CvWUtqiY_13weaveback_api8coverage34build_location_attribution_summarys3_0B5_
FN:1196,_RNCNvNtCsaY2CvWUtqiY_13weaveback_api8coverage34build_location_attribution_summarys4_0B5_
FN:1202,_RNCNvNtCsaY2CvWUtqiY_13weaveback_api8coverage34build_location_attribution_summarys5_0B5_
FN:1214,_RNCNvNtCsaY2CvWUtqiY_13weaveback_api8coverage34build_location_attribution_summarys6_0B5_
FN:1217,_RNCNvNtCsaY2CvWUtqiY_13weaveback_api8coverage34build_location_attribution_summarys7_0B5_
FN:1159,_RNCNvNtCsaY2CvWUtqiY_13weaveback_api8coverage34build_location_attribution_summarys_0B5_
FN:102,_RNCNvNvNtCsaY2CvWUtqiY_13weaveback_api8coverage24scan_generated_locations26normalize_scanned_location0B7_
FN:1505,_RNvNtCsaY2CvWUtqiY_13weaveback_api8coverage10run_impact
FN:1517,_RNvNtCsaY2CvWUtqiY_13weaveback_api8coverage10run_search
FN:873,_RNvNtCsaY2CvWUtqiY_13weaveback_api8coverage12run_coverage
FN:150,_RNvNtCsaY2CvWUtqiY_13weaveback_api8coverage13run_attribute
FN:225,_RNvNtCsaY2CvWUtqiY_13weaveback_api8coverage18parse_lcov_records
FN:1358,_RNvNtCsaY2CvWUtqiY_13weaveback_api8coverage19run_cargo_annotated
FN:257,_RNvNtCsaY2CvWUtqiY_13weaveback_api8coverage22build_coverage_summary
FN:655,_RNvNtCsaY2CvWUtqiY_13weaveback_api8coverage23compute_unmapped_ranges
FN:59,_RNvNtCsaY2CvWUtqiY_13weaveback_api8coverage24parse_generated_location
FN:99,_RNvNtCsaY2CvWUtqiY_13weaveback_api8coverage24scan_generated_locations
FN:994,_RNvNtCsaY2CvWUtqiY_13weaveback_api8coverage24trace_generated_location
FN:1296,_RNvNtCsaY2CvWUtqiY_13weaveback_api8coverage25collect_text_attributions
FN:917,_RNvNtCsaY2CvWUtqiY_13weaveback_api8coverage26collect_cargo_attributions
FN:820,_RNvNtCsaY2CvWUtqiY_13weaveback_api8coverage27build_coverage_summary_view
FN:1019,_RNvNtCsaY2CvWUtqiY_13weaveback_api8coverage31build_cargo_attribution_summary
FN:952,_RNvNtCsaY2CvWUtqiY_13weaveback_api8coverage31collect_cargo_span_attributions
FN:1132,_RNvNtCsaY2CvWUtqiY_13weaveback_api8coverage34build_location_attribution_summary
FN:618,_RNvNtCsaY2CvWUtqiY_13weaveback_api8coverage37find_noweb_entries_for_generated_file
FN:49,_RNvNtCsaY2CvWUtqiY_13weaveback_api8coverage7open_db
FN:1565,_RNvNtCsaY2CvWUtqiY_13weaveback_api8coverage8run_tags
FN:1511,_RNvNtCsaY2CvWUtqiY_13weaveback_api8coverage9run_graph
FN:1583,_RNvNtCsaY2CvWUtqiY_13weaveback_api8coverage9run_trace
FN:128,_RNvNtCsaY2CvWUtqiY_13weaveback_api8coverage9run_where
FN:100,_RNvNvNtCsaY2CvWUtqiY_13weaveback_api8coverage24scan_generated_locations26normalize_scanned_location
FN:24,_RNvXNtCsaY2CvWUtqiY_13weaveback_api8coverageNtB2_13CoverageErrorINtNtCs9yMf5VoQcqS_4core7convert4FromNtNtCs15Atq6sPk6z_16weaveback_tangle2db7DbErrorE4from
FN:42,_RNvXs0_NtCsaY2CvWUtqiY_13weaveback_api8coverageNtB5_13CoverageErrorINtNtCs9yMf5VoQcqS_4core7convert4FromNtNtB7_5query8ApiErrorE4from
FN:30,_RNvXs_NtCsaY2CvWUtqiY_13weaveback_api8coverageNtB4_13CoverageErrorINtNtCs9yMf5VoQcqS_4core7convert4FromNtNtB6_6lookup11LookupErrorE4from
FN:1530,_RNCNvNtCs9svORWNbXMv_13weaveback_api8coverage10run_search0B5_
FN:1517,_RNvNtCs9svORWNbXMv_13weaveback_api8coverage10run_search
FN:1358,_RNvNtCs9svORWNbXMv_13weaveback_api8coverage19run_cargo_annotated
FN:1505,_RNvNtCs9svORWNbXMv_13weaveback_api8coverage10run_impact
FN:873,_RNvNtCs9svORWNbXMv_13weaveback_api8coverage12run_coverage
FN:150,_RNvNtCs9svORWNbXMv_13weaveback_api8coverage13run_attribute
FN:225,_RNvNtCs9svORWNbXMv_13weaveback_api8coverage18parse_lcov_records
FN:257,_RNvNtCs9svORWNbXMv_13weaveback_api8coverage22build_coverage_summary
FN:655,_RNvNtCs9svORWNbXMv_13weaveback_api8coverage23compute_unmapped_ranges
FN:59,_RNvNtCs9svORWNbXMv_13weaveback_api8coverage24parse_generated_location
FN:99,_RNvNtCs9svORWNbXMv_13weaveback_api8coverage24scan_generated_locations
FN:994,_RNvNtCs9svORWNbXMv_13weaveback_api8coverage24trace_generated_location
FN:1296,_RNvNtCs9svORWNbXMv_13weaveback_api8coverage25collect_text_attributions
FN:917,_RNvNtCs9svORWNbXMv_13weaveback_api8coverage26collect_cargo_attributions
FN:820,_RNvNtCs9svORWNbXMv_13weaveback_api8coverage27build_coverage_summary_view
FN:1019,_RNvNtCs9svORWNbXMv_13weaveback_api8coverage31build_cargo_attribution_summary
FN:952,_RNvNtCs9svORWNbXMv_13weaveback_api8coverage31collect_cargo_span_attributions
FN:1132,_RNvNtCs9svORWNbXMv_13weaveback_api8coverage34build_location_attribution_summary
FN:618,_RNvNtCs9svORWNbXMv_13weaveback_api8coverage37find_noweb_entries_for_generated_file
FN:49,_RNvNtCs9svORWNbXMv_13weaveback_api8coverage7open_db
FN:1565,_RNvNtCs9svORWNbXMv_13weaveback_api8coverage8run_tags
FN:1511,_RNvNtCs9svORWNbXMv_13weaveback_api8coverage9run_graph
FN:1583,_RNvNtCs9svORWNbXMv_13weaveback_api8coverage9run_trace
FN:128,_RNvNtCs9svORWNbXMv_13weaveback_api8coverage9run_where
FN:100,_RNvNvNtCs9svORWNbXMv_13weaveback_api8coverage24scan_generated_locations26normalize_scanned_location
FN:24,_RNvXNtCs9svORWNbXMv_13weaveback_api8coverageNtB2_16CoverageApiErrorINtNtCs9yMf5VoQcqS_4core7convert4FromNtNtCsUfOgH5zVts_16weaveback_tangle2db7DbErrorE4from
FN:42,_RNvXs0_NtCs9svORWNbXMv_13weaveback_api8coverageNtB5_16CoverageApiErrorINtNtCs9yMf5VoQcqS_4core7convert4FromNtNtB7_5query8ApiErrorE4from
FN:30,_RNvXs_NtCs9svORWNbXMv_13weaveback_api8coverageNtB4_16CoverageApiErrorINtNtCs9yMf5VoQcqS_4core7convert4FromNtNtB6_6lookup11LookupErrorE4from
FN:3055,_RNvNtNtCs9svORWNbXMv_13weaveback_api8coverage14tests_coverage13ws_write_file
FN:2945,_RNvNtNtCs9svORWNbXMv_13weaveback_api8coverage14tests_coverages_22test_run_tags_empty_db
FN:2962,_RNvNtNtCs9svORWNbXMv_13weaveback_api8coverage14tests_coverages_25test_run_graph_missing_db
FN:2955,_RNvNtNtCs9svORWNbXMv_13weaveback_api8coverage14tests_coverages_26test_run_impact_missing_db
FN:2719,_RNvNtNtCs9svORWNbXMv_13weaveback_api8coverage14tests_coverages_28parse_lcov_records_malformed
FN:2451,_RNvNtNtCs9svORWNbXMv_13weaveback_api8coverage14tests_coverages_28test_compute_unmapped_ranges
FN:3021,_RNvNtNtCs9svORWNbXMv_13weaveback_api8coverage14tests_coverages_28test_run_where_orchestration
FN:2441,_RNvNtNtCs9svORWNbXMv_13weaveback_api8coverage14tests_coverages_30test_parse_lcov_records_simple
FN:2969,_RNvNtNtCs9svORWNbXMv_13weaveback_api8coverage14tests_coverages_30test_run_coverage_summary_only
FN:2989,_RNvNtNtCs9svORWNbXMv_13weaveback_api8coverage14tests_coverages_31test_coverage_error_conversions
FN:3032,_RNvNtNtCs9svORWNbXMv_13weaveback_api8coverage14tests_coverages_32test_run_attribute_orchestration
FN:2771,_RNvNtNtCs9svORWNbXMv_13weaveback_api8coverage14tests_coverages_33run_coverage_failure_missing_lcov
FN:2823,_RNvNtNtCs9svORWNbXMv_13weaveback_api8coverage14tests_coverages_33test_emit_augmented_cargo_message
FN:2516,_RNvNtNtCs9svORWNbXMv_13weaveback_api8coverage14tests_coverages_34coverage_error_io_displays_message
FN:2868,_RNvNtNtCs9svORWNbXMv_13weaveback_api8coverage14tests_coverages_34test_emit_text_attribution_message
FN:2733,_RNvNtNtCs9svORWNbXMv_13weaveback_api8coverage14tests_coverages_36build_coverage_summary_deep_sections
FN:2470,_RNvNtNtCs9svORWNbXMv_13weaveback_api8coverage14tests_coverages_36open_db_errors_when_database_missing
FN:3005,_RNvNtNtCs9svORWNbXMv_13weaveback_api8coverage14tests_coverages_36test_parse_generated_location_errors
FN:2594,_RNvNtNtCs9svORWNbXMv_13weaveback_api8coverage14tests_coverages_38explain_unattributed_file_emits_ranges
FN:3013,_RNvNtNtCs9svORWNbXMv_13weaveback_api8coverage14tests_coverages_40test_scan_generated_locations_edge_cases
FN:2784,_RNvNtNtCs9svORWNbXMv_13weaveback_api8coverage14tests_coverages_41test_collect_cargo_attributions_with_mock
FN:2043,_RNvNtNtCs9svORWNbXMv_13weaveback_api8coverage14tests_coverages_42parse_lcov_records_extracts_file_line_hits
FN:2540,_RNvNtNtCs9svORWNbXMv_13weaveback_api8coverage14tests_coverages_42print_coverage_summary_prints_source_stats
FN:2607,_RNvNtNtCs9svORWNbXMv_13weaveback_api8coverage14tests_coverages_44explain_unattributed_file_skips_empty_ranges
FN:2882,_RNvNtNtCs9svORWNbXMv_13weaveback_api8coverage14tests_coverages_44test_run_cargo_annotated_to_writer_mega_mock
FN:2498,_RNvNtNtCs9svORWNbXMv_13weaveback_api8coverage14tests_coverages_45parse_generated_location_parses_file_line_col
FN:2506,_RNvNtNtCs9svORWNbXMv_13weaveback_api8coverage14tests_coverages_46parse_generated_location_parses_file_line_only
FN:1633,_RNvNtNtCs9svORWNbXMv_13weaveback_api8coverage14tests_coverages_46scan_generated_locations_extracts_unique_specs
FN:2837,_RNvNtNtCs9svORWNbXMv_13weaveback_api8coverage14tests_coverages_46test_collect_text_attributions_scans_locations
FN:2480,_RNvNtNtCs9svORWNbXMv_13weaveback_api8coverage14tests_coverages_48parse_generated_location_errors_on_missing_colon
FN:2524,_RNvNtNtCs9svORWNbXMv_13weaveback_api8coverage14tests_coverages_48print_coverage_summary_shows_attributed_vs_total
FN:2492,_RNvNtNtCs9svORWNbXMv_13weaveback_api8coverage14tests_coverages_49parse_generated_location_errors_on_bad_col_number
FN:2568,_RNvNtNtCs9svORWNbXMv_13weaveback_api8coverage14tests_coverages_49print_coverage_summary_reports_unattributed_files
FN:2486,_RNvNtNtCs9svORWNbXMv_13weaveback_api8coverage14tests_coverages_50parse_generated_location_errors_on_bad_line_number
FN:2247,_RNvNtNtCs9svORWNbXMv_13weaveback_api8coverage14tests_coverages_51build_coverage_summary_view_keeps_ranked_top_slices
FN:1817,_RNvNtNtCs9svORWNbXMv_13weaveback_api8coverage14tests_coverages_51emit_cargo_summary_message_emits_final_grouped_json
FN:2657,_RNvNtNtCs9svORWNbXMv_13weaveback_api8coverage14tests_coverages_51emit_cargo_summary_message_outputs_json_with_reason
FN:1732,_RNvNtNtCs9svORWNbXMv_13weaveback_api8coverage14tests_coverages_51emit_text_attribution_message_wraps_plain_text_line
FN:2921,_RNvNtNtCs9svORWNbXMv_13weaveback_api8coverage14tests_coverages_51test_run_cargo_annotated_to_writer_diagnostics_only
FN:1757,_RNvNtNtCs9svORWNbXMv_13weaveback_api8coverage14tests_coverages_52collect_text_attributions_scans_and_traces_locations
FN:2388,_RNvNtNtCs9svORWNbXMv_13weaveback_api8coverage14tests_coverages_53build_cargo_attribution_summary_groups_by_source_file
FN:2056,_RNvNtNtCs9svORWNbXMv_13weaveback_api8coverage14tests_coverages_53build_coverage_summary_groups_lines_by_source_section
FN:2639,_RNvNtNtCs9svORWNbXMv_13weaveback_api8coverage14tests_coverages_53build_coverage_summary_view_preserves_metadata_fields
FN:1688,_RNvNtNtCs9svORWNbXMv_13weaveback_api8coverage14tests_coverages_53emit_augmented_cargo_message_attaches_full_trace_json
FN:1621,_RNvNtNtCs9svORWNbXMv_13weaveback_api8coverage14tests_coverages_54parse_generated_location_accepts_line_and_optional_col
FN:2127,_RNvNtNtCs9svORWNbXMv_13weaveback_api8coverage14tests_coverages_55build_coverage_summary_marks_partial_unattributed_files
FN:2617,_RNvNtNtCs9svORWNbXMv_13weaveback_api8coverage14tests_coverages_58build_coverage_summary_view_truncates_sources_and_sections
FN:1790,_RNvNtNtCs9svORWNbXMv_13weaveback_api8coverage14tests_coverages_60build_location_attribution_summary_groups_successful_records
FN:2338,_RNvNtNtCs9svORWNbXMv_13weaveback_api8coverage14tests_coverages_60collect_cargo_span_attributions_keeps_generated_span_context
FN:2291,_RNvNtNtCs9svORWNbXMv_13weaveback_api8coverage14tests_coverages_61collect_cargo_attributions_maps_generated_span_back_to_source
FN:2670,_RNvNtNtCs9svORWNbXMv_13weaveback_api8coverage14tests_coverages_63build_location_attribution_summary_groups_by_source_and_section
FN:2708,_RNvNtNtCs9svORWNbXMv_13weaveback_api8coverage14tests_coverages_63build_location_attribution_summary_returns_empty_for_no_records
FN:2162,_RNvNtNtCs9svORWNbXMv_13weaveback_api8coverage14tests_coverages_65build_coverage_summary_sorts_sources_and_sections_by_missed_lines
FN:1861,_RNvNtNtCs9svORWNbXMv_13weaveback_api8coverage14tests_coverages_65run_cargo_annotated_to_writer_traces_real_generated_compile_error
FN:1959,_RNvNtNtCs9svORWNbXMv_13weaveback_api8coverage14tests_coverages_69run_cargo_annotated_to_writer_emits_text_attribution_for_text_warning
FN:1642,_RNvNtNtCs9svORWNbXMv_13weaveback_api8coverage14tests_coverages_69scan_generated_locations_trims_punctuation_and_supports_windows_paths
FN:1651,_RNvNtNtCs9svORWNbXMv_13weaveback_api8coverage14tests_coverages_70find_noweb_entries_for_generated_file_rejects_ambiguous_short_suffixes
FN:693,_RINvNtCs9svORWNbXMv_13weaveback_api8coverage25explain_unattributed_fileINtNtCsjjC6uJeAzJn_5alloc3vec3VechEEB4_
FN:693,_RINvNtCs9svORWNbXMv_13weaveback_api8coverage25explain_unattributed_fileQINtNtCsjjC6uJeAzJn_5alloc3vec3VechEEB4_
FN:693,_RINvNtCs9svORWNbXMv_13weaveback_api8coverage25explain_unattributed_fileQNtNtNtCshbt5Cx3aOt7_3std2io5stdio6StdoutEB4_
FN:1278,_RINvNtCs9svORWNbXMv_13weaveback_api8coverage26emit_cargo_summary_messageQINtNtCsjjC6uJeAzJn_5alloc3vec3VechEEB4_
FN:1278,_RINvNtCs9svORWNbXMv_13weaveback_api8coverage26emit_cargo_summary_messageQQINtNtCsjjC6uJeAzJn_5alloc3vec3VechEEB4_
FN:1246,_RINvNtCs9svORWNbXMv_13weaveback_api8coverage28emit_augmented_cargo_messageQINtNtCsjjC6uJeAzJn_5alloc3vec3VechEEB4_
FN:1246,_RINvNtCs9svORWNbXMv_13weaveback_api8coverage28emit_augmented_cargo_messageQQINtNtCsjjC6uJeAzJn_5alloc3vec3VechEEB4_
FN:1336,_RINvNtCs9svORWNbXMv_13weaveback_api8coverage29emit_text_attribution_messageQINtNtCsjjC6uJeAzJn_5alloc3vec3VechEEB4_
FN:1336,_RINvNtCs9svORWNbXMv_13weaveback_api8coverage29emit_text_attribution_messageQQINtNtCsjjC6uJeAzJn_5alloc3vec3VechEEB4_
FN:1378,_RINvNtCs9svORWNbXMv_13weaveback_api8coverage29run_cargo_annotated_to_writerQINtNtCsjjC6uJeAzJn_5alloc3vec3VechEEB4_
FN:731,_RINvNtCs9svORWNbXMv_13weaveback_api8coverage32print_coverage_summary_to_writerQINtNtCsjjC6uJeAzJn_5alloc3vec3VechEEB4_
FN:731,_RINvNtCs9svORWNbXMv_13weaveback_api8coverage32print_coverage_summary_to_writerQNtNtNtCshbt5Cx3aOt7_3std2io5stdio6StdoutEB4_
FN:708,_RNCINvNtCs9svORWNbXMv_13weaveback_api8coverage25explain_unattributed_fileINtNtCsjjC6uJeAzJn_5alloc3vec3VechEE0B6_
FN:708,_RNCINvNtCs9svORWNbXMv_13weaveback_api8coverage25explain_unattributed_fileQINtNtCsjjC6uJeAzJn_5alloc3vec3VechEE0B6_
FN:708,_RNCINvNtCs9svORWNbXMv_13weaveback_api8coverage25explain_unattributed_fileQNtNtNtCshbt5Cx3aOt7_3std2io5stdio6StdoutE0B6_
FN:1392,_RNCINvNtCs9svORWNbXMv_13weaveback_api8coverage29run_cargo_annotated_to_writerQINtNtCsjjC6uJeAzJn_5alloc3vec3VechEE0B6_
FN:1409,_RNCINvNtCs9svORWNbXMv_13weaveback_api8coverage29run_cargo_annotated_to_writerQINtNtCsjjC6uJeAzJn_5alloc3vec3VechEEs0_0B6_
FN:1422,_RNCINvNtCs9svORWNbXMv_13weaveback_api8coverage29run_cargo_annotated_to_writerQINtNtCsjjC6uJeAzJn_5alloc3vec3VechEEs1_0B6_
FN:1426,_RNCINvNtCs9svORWNbXMv_13weaveback_api8coverage29run_cargo_annotated_to_writerQINtNtCsjjC6uJeAzJn_5alloc3vec3VechEEs2_0B6_
FN:1433,_RNCINvNtCs9svORWNbXMv_13weaveback_api8coverage29run_cargo_annotated_to_writerQINtNtCsjjC6uJeAzJn_5alloc3vec3VechEEs3_0B6_
FN:1395,_RNCINvNtCs9svORWNbXMv_13weaveback_api8coverage29run_cargo_annotated_to_writerQINtNtCsjjC6uJeAzJn_5alloc3vec3VechEEs_0B6_
FN:761,_RNCINvNtCs9svORWNbXMv_13weaveback_api8coverage32print_coverage_summary_to_writerQINtNtCsjjC6uJeAzJn_5alloc3vec3VechEE0B6_
FN:768,_RNCINvNtCs9svORWNbXMv_13weaveback_api8coverage32print_coverage_summary_to_writerQINtNtCsjjC6uJeAzJn_5alloc3vec3VechEEs_0B6_
FN:761,_RNCINvNtCs9svORWNbXMv_13weaveback_api8coverage32print_coverage_summary_to_writerQNtNtNtCshbt5Cx3aOt7_3std2io5stdio6StdoutE0B6_
FN:768,_RNCINvNtCs9svORWNbXMv_13weaveback_api8coverage32print_coverage_summary_to_writerQNtNtNtCshbt5Cx3aOt7_3std2io5stdio6StdoutEs_0B6_
FN:764,_RNCNCINvNtCs9svORWNbXMv_13weaveback_api8coverage32print_coverage_summary_to_writerQINtNtCsjjC6uJeAzJn_5alloc3vec3VechEE00B8_
FN:764,_RNCNCINvNtCs9svORWNbXMv_13weaveback_api8coverage32print_coverage_summary_to_writerQNtNtNtCshbt5Cx3aOt7_3std2io5stdio6StdoutE00B8_
FN:542,_RNCNCNCNCNCNvNtCs9svORWNbXMv_13weaveback_api8coverage22build_coverage_summarysc_0s_0000Bd_
FN:552,_RNCNCNCNCNCNvNtCs9svORWNbXMv_13weaveback_api8coverage22build_coverage_summarysc_0s_00s_00Bd_
FN:539,_RNCNCNCNCNvNtCs9svORWNbXMv_13weaveback_api8coverage22build_coverage_summarysc_0s_000Bb_
FN:549,_RNCNCNCNCNvNtCs9svORWNbXMv_13weaveback_api8coverage22build_coverage_summarysc_0s_00s_0Bb_
FN:536,_RNCNCNCNvNtCs9svORWNbXMv_13weaveback_api8coverage22build_coverage_summarysc_0s_00B9_
FN:837,_RNCNCNCNvNtCs9svORWNbXMv_13weaveback_api8coverage27build_coverage_summary_view000B9_
FN:366,_RNCNCNvNtCs9svORWNbXMv_13weaveback_api8coverage22build_coverage_summarys1_00B7_
FN:455,_RNCNCNvNtCs9svORWNbXMv_13weaveback_api8coverage22build_coverage_summarys9_00B7_
FN:520,_RNCNCNvNtCs9svORWNbXMv_13weaveback_api8coverage22build_coverage_summarysc_00B7_
FN:533,_RNCNCNvNtCs9svORWNbXMv_13weaveback_api8coverage22build_coverage_summarysc_0s_0B7_
FN:574,_RNCNCNvNtCs9svORWNbXMv_13weaveback_api8coverage22build_coverage_summarysd_00B7_
FN:601,_RNCNCNvNtCs9svORWNbXMv_13weaveback_api8coverage22build_coverage_summarysf_00B7_
FN:833,_RNCNCNvNtCs9svORWNbXMv_13weaveback_api8coverage27build_coverage_summary_view00B7_
FN:1064,_RNCNCNvNtCs9svORWNbXMv_13weaveback_api8coverage31build_cargo_attribution_summarys2_00B7_
FN:1118,_RNCNCNvNtCs9svORWNbXMv_13weaveback_api8coverage31build_cargo_attribution_summarys4_00B7_
FN:1049,_RNCNCNvNtCs9svORWNbXMv_13weaveback_api8coverage31build_cargo_attribution_summarys_00B7_
FN:1160,_RNCNCNvNtCs9svORWNbXMv_13weaveback_api8coverage34build_location_attribution_summarys0_00B7_
FN:1175,_RNCNCNvNtCs9svORWNbXMv_13weaveback_api8coverage34build_location_attribution_summarys3_00B7_
FN:1221,_RNCNCNvNtCs9svORWNbXMv_13weaveback_api8coverage34build_location_attribution_summarys7_00B7_
FN:1230,_RNCNCNvNtCs9svORWNbXMv_13weaveback_api8coverage34build_location_attribution_summarys7_0s_0B7_
FN:212,_RNCNvNtCs9svORWNbXMv_13weaveback_api8coverage13run_attribute0B5_
FN:213,_RNCNvNtCs9svORWNbXMv_13weaveback_api8coverage13run_attributes_0B5_
FN:245,_RNCNvNtCs9svORWNbXMv_13weaveback_api8coverage18parse_lcov_records0B5_
FN:248,_RNCNvNtCs9svORWNbXMv_13weaveback_api8coverage18parse_lcov_recordss_0B5_
FN:323,_RNCNvNtCs9svORWNbXMv_13weaveback_api8coverage22build_coverage_summary0B5_
FN:327,_RNCNvNtCs9svORWNbXMv_13weaveback_api8coverage22build_coverage_summarys0_0B5_
FN:365,_RNCNvNtCs9svORWNbXMv_13weaveback_api8coverage22build_coverage_summarys1_0B5_
FN:381,_RNCNvNtCs9svORWNbXMv_13weaveback_api8coverage22build_coverage_summarys2_0B5_
FN:382,_RNCNvNtCs9svORWNbXMv_13weaveback_api8coverage22build_coverage_summarys3_0B5_
FN:420,_RNCNvNtCs9svORWNbXMv_13weaveback_api8coverage22build_coverage_summarys4_0B5_
FN:421,_RNCNvNtCs9svORWNbXMv_13weaveback_api8coverage22build_coverage_summarys5_0B5_
FN:425,_RNCNvNtCs9svORWNbXMv_13weaveback_api8coverage22build_coverage_summarys6_0B5_
FN:426,_RNCNvNtCs9svORWNbXMv_13weaveback_api8coverage22build_coverage_summarys7_0B5_
FN:451,_RNCNvNtCs9svORWNbXMv_13weaveback_api8coverage22build_coverage_summarys8_0B5_
FN:452,_RNCNvNtCs9svORWNbXMv_13weaveback_api8coverage22build_coverage_summarys9_0B5_
FN:326,_RNCNvNtCs9svORWNbXMv_13weaveback_api8coverage22build_coverage_summarys_0B5_
FN:467,_RNCNvNtCs9svORWNbXMv_13weaveback_api8coverage22build_coverage_summarysa_0B5_
FN:503,_RNCNvNtCs9svORWNbXMv_13weaveback_api8coverage22build_coverage_summarysb_0B5_
FN:516,_RNCNvNtCs9svORWNbXMv_13weaveback_api8coverage22build_coverage_summarysc_0B5_
FN:571,_RNCNvNtCs9svORWNbXMv_13weaveback_api8coverage22build_coverage_summarysd_0B5_
FN:583,_RNCNvNtCs9svORWNbXMv_13weaveback_api8coverage22build_coverage_summaryse_0B5_
FN:598,_RNCNvNtCs9svORWNbXMv_13weaveback_api8coverage22build_coverage_summarysf_0B5_
FN:658,_RNCNvNtCs9svORWNbXMv_13weaveback_api8coverage23compute_unmapped_ranges0B5_
FN:61,_RNCNvNtCs9svORWNbXMv_13weaveback_api8coverage24parse_generated_location0B5_
FN:75,_RNCNvNtCs9svORWNbXMv_13weaveback_api8coverage24parse_generated_locations0_0B5_
FN:81,_RNCNvNtCs9svORWNbXMv_13weaveback_api8coverage24parse_generated_locations1_0B5_
FN:89,_RNCNvNtCs9svORWNbXMv_13weaveback_api8coverage24parse_generated_locations2_0B5_
FN:67,_RNCNvNtCs9svORWNbXMv_13weaveback_api8coverage24parse_generated_locations_0B5_
FN:117,_RNCNvNtCs9svORWNbXMv_13weaveback_api8coverage24scan_generated_locations0B5_
FN:1013,_RNCNvNtCs9svORWNbXMv_13weaveback_api8coverage24trace_generated_location0B5_
FN:828,_RNCNvNtCs9svORWNbXMv_13weaveback_api8coverage27build_coverage_summary_view0B5_
FN:863,_RNCNvNtCs9svORWNbXMv_13weaveback_api8coverage27build_coverage_summary_views0_0B5_
FN:864,_RNCNvNtCs9svORWNbXMv_13weaveback_api8coverage27build_coverage_summary_views1_0B5_
FN:851,_RNCNvNtCs9svORWNbXMv_13weaveback_api8coverage27build_coverage_summary_views_0B5_
FN:1048,_RNCNvNtCs9svORWNbXMv_13weaveback_api8coverage31build_cargo_attribution_summary0B5_
FN:1055,_RNCNvNtCs9svORWNbXMv_13weaveback_api8coverage31build_cargo_attribution_summarys0_0B5_
FN:1060,_RNCNvNtCs9svORWNbXMv_13weaveback_api8coverage31build_cargo_attribution_summarys1_0B5_
FN:1061,_RNCNvNtCs9svORWNbXMv_13weaveback_api8coverage31build_cargo_attribution_summarys2_0B5_
FN:1096,_RNCNvNtCs9svORWNbXMv_13weaveback_api8coverage31build_cargo_attribution_summarys3_0B5_
FN:1111,_RNCNvNtCs9svORWNbXMv_13weaveback_api8coverage31build_cargo_attribution_summarys4_0B5_
FN:1049,_RNCNvNtCs9svORWNbXMv_13weaveback_api8coverage31build_cargo_attribution_summarys_0B5_
FN:1153,_RNCNvNtCs9svORWNbXMv_13weaveback_api8coverage34build_location_attribution_summary0B5_
FN:1160,_RNCNvNtCs9svORWNbXMv_13weaveback_api8coverage34build_location_attribution_summarys0_0B5_
FN:1166,_RNCNvNtCs9svORWNbXMv_13weaveback_api8coverage34build_location_attribution_summarys1_0B5_
FN:1171,_RNCNvNtCs9svORWNbXMv_13weaveback_api8coverage34build_location_attribution_summarys2_0B5_
FN:1172,_RNCNvNtCs9svORWNbXMv_13weaveback_api8coverage34build_location_attribution_summarys3_0B5_
FN:1196,_RNCNvNtCs9svORWNbXMv_13weaveback_api8coverage34build_location_attribution_summarys4_0B5_
FN:1202,_RNCNvNtCs9svORWNbXMv_13weaveback_api8coverage34build_location_attribution_summarys5_0B5_
FN:1214,_RNCNvNtCs9svORWNbXMv_13weaveback_api8coverage34build_location_attribution_summarys6_0B5_
FN:1217,_RNCNvNtCs9svORWNbXMv_13weaveback_api8coverage34build_location_attribution_summarys7_0B5_
FN:1159,_RNCNvNtCs9svORWNbXMv_13weaveback_api8coverage34build_location_attribution_summarys_0B5_
FN:102,_RNCNvNvNtCs9svORWNbXMv_13weaveback_api8coverage24scan_generated_locations26normalize_scanned_location0B7_
FN:1953,_RNCNCNCNCNvNtNtCs9svORWNbXMv_13weaveback_api8coverage14tests_coverages_65run_cargo_annotated_to_writer_traces_real_generated_compile_errors2_0000Bd_
FN:1950,_RNCNCNCNvNtNtCs9svORWNbXMv_13weaveback_api8coverage14tests_coverages_65run_cargo_annotated_to_writer_traces_real_generated_compile_errors2_000Bb_
FN:1934,_RNCNCNvNtNtCs9svORWNbXMv_13weaveback_api8coverage14tests_coverages_65run_cargo_annotated_to_writer_traces_real_generated_compile_errors1_00B9_
FN:1935,_RNCNCNvNtNtCs9svORWNbXMv_13weaveback_api8coverage14tests_coverages_65run_cargo_annotated_to_writer_traces_real_generated_compile_errors1_0s_0B9_
FN:1950,_RNCNCNvNtNtCs9svORWNbXMv_13weaveback_api8coverage14tests_coverages_65run_cargo_annotated_to_writer_traces_real_generated_compile_errors2_00B9_
FN:2036,_RNCNCNvNtNtCs9svORWNbXMv_13weaveback_api8coverage14tests_coverages_69run_cargo_annotated_to_writer_emits_text_attribution_for_text_warnings0_00B9_
FN:2763,_RNCNvNtNtCs9svORWNbXMv_13weaveback_api8coverage14tests_coverages_36build_coverage_summary_deep_sections0B7_
FN:2108,_RNCNvNtNtCs9svORWNbXMv_13weaveback_api8coverage14tests_coverages_53build_coverage_summary_groups_lines_by_source_section0B7_
FN:2330,_RNCNvNtNtCs9svORWNbXMv_13weaveback_api8coverage14tests_coverages_61collect_cargo_attributions_maps_generated_span_back_to_source0B7_
FN:2703,_RNCNvNtNtCs9svORWNbXMv_13weaveback_api8coverage14tests_coverages_63build_location_attribution_summary_groups_by_source_and_section0B7_
FN:2238,_RNCNvNtNtCs9svORWNbXMv_13weaveback_api8coverage14tests_coverages_65build_coverage_summary_sorts_sources_and_sections_by_missed_lines0B7_
FN:1919,_RNCNvNtNtCs9svORWNbXMv_13weaveback_api8coverage14tests_coverages_65run_cargo_annotated_to_writer_traces_real_generated_compile_error0B7_
FN:1941,_RNCNvNtNtCs9svORWNbXMv_13weaveback_api8coverage14tests_coverages_65run_cargo_annotated_to_writer_traces_real_generated_compile_errors0_0B7_
FN:1931,_RNCNvNtNtCs9svORWNbXMv_13weaveback_api8coverage14tests_coverages_65run_cargo_annotated_to_writer_traces_real_generated_compile_errors1_0B7_
FN:1946,_RNCNvNtNtCs9svORWNbXMv_13weaveback_api8coverage14tests_coverages_65run_cargo_annotated_to_writer_traces_real_generated_compile_errors2_0B7_
FN:1925,_RNCNvNtNtCs9svORWNbXMv_13weaveback_api8coverage14tests_coverages_65run_cargo_annotated_to_writer_traces_real_generated_compile_errors_0B7_
FN:2025,_RNCNvNtNtCs9svORWNbXMv_13weaveback_api8coverage14tests_coverages_69run_cargo_annotated_to_writer_emits_text_attribution_for_text_warning0B7_
FN:2036,_RNCNvNtNtCs9svORWNbXMv_13weaveback_api8coverage14tests_coverages_69run_cargo_annotated_to_writer_emits_text_attribution_for_text_warnings0_0B7_
FN:2030,_RNCNvNtNtCs9svORWNbXMv_13weaveback_api8coverage14tests_coverages_69run_cargo_annotated_to_writer_emits_text_attribution_for_text_warnings_0B7_
FNDA:0,_RINvNtCsaY2CvWUtqiY_13weaveback_api8coverage25explain_unattributed_fileQNtNtNtCshbt5Cx3aOt7_3std2io5stdio6StdoutEB4_
FNDA:0,_RINvNtCsaY2CvWUtqiY_13weaveback_api8coverage26emit_cargo_summary_messageQQNtNtNtCshbt5Cx3aOt7_3std2io5stdio10StdoutLockEB4_
FNDA:0,_RINvNtCsaY2CvWUtqiY_13weaveback_api8coverage28emit_augmented_cargo_messageQQNtNtNtCshbt5Cx3aOt7_3std2io5stdio10StdoutLockEB4_
FNDA:0,_RINvNtCsaY2CvWUtqiY_13weaveback_api8coverage29emit_text_attribution_messageQQNtNtNtCshbt5Cx3aOt7_3std2io5stdio10StdoutLockEB4_
FNDA:0,_RINvNtCsaY2CvWUtqiY_13weaveback_api8coverage29run_cargo_annotated_to_writerQNtNtNtCshbt5Cx3aOt7_3std2io5stdio10StdoutLockEB4_
FNDA:0,_RINvNtCsaY2CvWUtqiY_13weaveback_api8coverage32print_coverage_summary_to_writerQNtNtNtCshbt5Cx3aOt7_3std2io5stdio6StdoutEB4_
FNDA:0,_RNCINvNtCsaY2CvWUtqiY_13weaveback_api8coverage25explain_unattributed_fileQNtNtNtCshbt5Cx3aOt7_3std2io5stdio6StdoutE0B6_
FNDA:0,_RNCINvNtCsaY2CvWUtqiY_13weaveback_api8coverage29run_cargo_annotated_to_writerQNtNtNtCshbt5Cx3aOt7_3std2io5stdio10StdoutLockE0B6_
FNDA:0,_RNCINvNtCsaY2CvWUtqiY_13weaveback_api8coverage29run_cargo_annotated_to_writerQNtNtNtCshbt5Cx3aOt7_3std2io5stdio10StdoutLockEs0_0B6_
FNDA:0,_RNCINvNtCsaY2CvWUtqiY_13weaveback_api8coverage29run_cargo_annotated_to_writerQNtNtNtCshbt5Cx3aOt7_3std2io5stdio10StdoutLockEs1_0B6_
FNDA:0,_RNCINvNtCsaY2CvWUtqiY_13weaveback_api8coverage29run_cargo_annotated_to_writerQNtNtNtCshbt5Cx3aOt7_3std2io5stdio10StdoutLockEs2_0B6_
FNDA:0,_RNCINvNtCsaY2CvWUtqiY_13weaveback_api8coverage29run_cargo_annotated_to_writerQNtNtNtCshbt5Cx3aOt7_3std2io5stdio10StdoutLockEs3_0B6_
FNDA:0,_RNCINvNtCsaY2CvWUtqiY_13weaveback_api8coverage29run_cargo_annotated_to_writerQNtNtNtCshbt5Cx3aOt7_3std2io5stdio10StdoutLockEs_0B6_
FNDA:0,_RNCINvNtCsaY2CvWUtqiY_13weaveback_api8coverage32print_coverage_summary_to_writerQNtNtNtCshbt5Cx3aOt7_3std2io5stdio6StdoutE0B6_
FNDA:0,_RNCINvNtCsaY2CvWUtqiY_13weaveback_api8coverage32print_coverage_summary_to_writerQNtNtNtCshbt5Cx3aOt7_3std2io5stdio6StdoutEs_0B6_
FNDA:0,_RNCNCINvNtCsaY2CvWUtqiY_13weaveback_api8coverage32print_coverage_summary_to_writerQNtNtNtCshbt5Cx3aOt7_3std2io5stdio6StdoutE00B8_
FNDA:0,_RNCNCNCNCNCNvNtCsaY2CvWUtqiY_13weaveback_api8coverage22build_coverage_summarysc_0s_0000Bd_
FNDA:0,_RNCNCNCNCNCNvNtCsaY2CvWUtqiY_13weaveback_api8coverage22build_coverage_summarysc_0s_00s_00Bd_
FNDA:0,_RNCNCNCNCNvNtCsaY2CvWUtqiY_13weaveback_api8coverage22build_coverage_summarysc_0s_000Bb_
FNDA:0,_RNCNCNCNCNvNtCsaY2CvWUtqiY_13weaveback_api8coverage22build_coverage_summarysc_0s_00s_0Bb_
FNDA:0,_RNCNCNCNvNtCsaY2CvWUtqiY_13weaveback_api8coverage22build_coverage_summarysc_0s_00B9_
FNDA:0,_RNCNCNCNvNtCsaY2CvWUtqiY_13weaveback_api8coverage27build_coverage_summary_view000B9_
FNDA:0,_RNCNCNvNtCsaY2CvWUtqiY_13weaveback_api8coverage22build_coverage_summarys1_00B7_
FNDA:0,_RNCNCNvNtCsaY2CvWUtqiY_13weaveback_api8coverage22build_coverage_summarys9_00B7_
FNDA:0,_RNCNCNvNtCsaY2CvWUtqiY_13weaveback_api8coverage22build_coverage_summarysc_00B7_
FNDA:0,_RNCNCNvNtCsaY2CvWUtqiY_13weaveback_api8coverage22build_coverage_summarysc_0s_0B7_
FNDA:0,_RNCNCNvNtCsaY2CvWUtqiY_13weaveback_api8coverage22build_coverage_summarysd_00B7_
FNDA:0,_RNCNCNvNtCsaY2CvWUtqiY_13weaveback_api8coverage22build_coverage_summarysf_00B7_
FNDA:0,_RNCNCNvNtCsaY2CvWUtqiY_13weaveback_api8coverage27build_coverage_summary_view00B7_
FNDA:0,_RNCNCNvNtCsaY2CvWUtqiY_13weaveback_api8coverage31build_cargo_attribution_summarys2_00B7_
FNDA:0,_RNCNCNvNtCsaY2CvWUtqiY_13weaveback_api8coverage31build_cargo_attribution_summarys4_00B7_
FNDA:0,_RNCNCNvNtCsaY2CvWUtqiY_13weaveback_api8coverage31build_cargo_attribution_summarys_00B7_
FNDA:0,_RNCNCNvNtCsaY2CvWUtqiY_13weaveback_api8coverage34build_location_attribution_summarys0_00B7_
FNDA:0,_RNCNCNvNtCsaY2CvWUtqiY_13weaveback_api8coverage34build_location_attribution_summarys3_00B7_
FNDA:0,_RNCNCNvNtCsaY2CvWUtqiY_13weaveback_api8coverage34build_location_attribution_summarys7_00B7_
FNDA:0,_RNCNCNvNtCsaY2CvWUtqiY_13weaveback_api8coverage34build_location_attribution_summarys7_0s_0B7_
FNDA:0,_RNCNvNtCsaY2CvWUtqiY_13weaveback_api8coverage10run_search0B5_
FNDA:0,_RNCNvNtCsaY2CvWUtqiY_13weaveback_api8coverage13run_attribute0B5_
FNDA:0,_RNCNvNtCsaY2CvWUtqiY_13weaveback_api8coverage13run_attributes_0B5_
FNDA:0,_RNCNvNtCsaY2CvWUtqiY_13weaveback_api8coverage18parse_lcov_records0B5_
FNDA:0,_RNCNvNtCsaY2CvWUtqiY_13weaveback_api8coverage18parse_lcov_recordss_0B5_
FNDA:0,_RNCNvNtCsaY2CvWUtqiY_13weaveback_api8coverage22build_coverage_summary0B5_
FNDA:0,_RNCNvNtCsaY2CvWUtqiY_13weaveback_api8coverage22build_coverage_summarys0_0B5_
FNDA:0,_RNCNvNtCsaY2CvWUtqiY_13weaveback_api8coverage22build_coverage_summarys1_0B5_
FNDA:0,_RNCNvNtCsaY2CvWUtqiY_13weaveback_api8coverage22build_coverage_summarys2_0B5_
FNDA:0,_RNCNvNtCsaY2CvWUtqiY_13weaveback_api8coverage22build_coverage_summarys3_0B5_
FNDA:0,_RNCNvNtCsaY2CvWUtqiY_13weaveback_api8coverage22build_coverage_summarys4_0B5_
FNDA:0,_RNCNvNtCsaY2CvWUtqiY_13weaveback_api8coverage22build_coverage_summarys5_0B5_
FNDA:0,_RNCNvNtCsaY2CvWUtqiY_13weaveback_api8coverage22build_coverage_summarys6_0B5_
FNDA:0,_RNCNvNtCsaY2CvWUtqiY_13weaveback_api8coverage22build_coverage_summarys7_0B5_
FNDA:0,_RNCNvNtCsaY2CvWUtqiY_13weaveback_api8coverage22build_coverage_summarys8_0B5_
FNDA:0,_RNCNvNtCsaY2CvWUtqiY_13weaveback_api8coverage22build_coverage_summarys9_0B5_
FNDA:0,_RNCNvNtCsaY2CvWUtqiY_13weaveback_api8coverage22build_coverage_summarys_0B5_
FNDA:0,_RNCNvNtCsaY2CvWUtqiY_13weaveback_api8coverage22build_coverage_summarysa_0B5_
FNDA:0,_RNCNvNtCsaY2CvWUtqiY_13weaveback_api8coverage22build_coverage_summarysb_0B5_
FNDA:0,_RNCNvNtCsaY2CvWUtqiY_13weaveback_api8coverage22build_coverage_summarysc_0B5_
FNDA:0,_RNCNvNtCsaY2CvWUtqiY_13weaveback_api8coverage22build_coverage_summarysd_0B5_
FNDA:0,_RNCNvNtCsaY2CvWUtqiY_13weaveback_api8coverage22build_coverage_summaryse_0B5_
FNDA:0,_RNCNvNtCsaY2CvWUtqiY_13weaveback_api8coverage22build_coverage_summarysf_0B5_
FNDA:0,_RNCNvNtCsaY2CvWUtqiY_13weaveback_api8coverage23compute_unmapped_ranges0B5_
FNDA:0,_RNCNvNtCsaY2CvWUtqiY_13weaveback_api8coverage24parse_generated_location0B5_
FNDA:0,_RNCNvNtCsaY2CvWUtqiY_13weaveback_api8coverage24parse_generated_locations0_0B5_
FNDA:0,_RNCNvNtCsaY2CvWUtqiY_13weaveback_api8coverage24parse_generated_locations1_0B5_
FNDA:0,_RNCNvNtCsaY2CvWUtqiY_13weaveback_api8coverage24parse_generated_locations2_0B5_
FNDA:0,_RNCNvNtCsaY2CvWUtqiY_13weaveback_api8coverage24parse_generated_locations_0B5_
FNDA:0,_RNCNvNtCsaY2CvWUtqiY_13weaveback_api8coverage24scan_generated_locations0B5_
FNDA:0,_RNCNvNtCsaY2CvWUtqiY_13weaveback_api8coverage24trace_generated_location0B5_
FNDA:0,_RNCNvNtCsaY2CvWUtqiY_13weaveback_api8coverage27build_coverage_summary_view0B5_
FNDA:0,_RNCNvNtCsaY2CvWUtqiY_13weaveback_api8coverage27build_coverage_summary_views0_0B5_
FNDA:0,_RNCNvNtCsaY2CvWUtqiY_13weaveback_api8coverage27build_coverage_summary_views1_0B5_
FNDA:0,_RNCNvNtCsaY2CvWUtqiY_13weaveback_api8coverage27build_coverage_summary_views_0B5_
FNDA:0,_RNCNvNtCsaY2CvWUtqiY_13weaveback_api8coverage31build_cargo_attribution_summary0B5_
FNDA:0,_RNCNvNtCsaY2CvWUtqiY_13weaveback_api8coverage31build_cargo_attribution_summarys0_0B5_
FNDA:0,_RNCNvNtCsaY2CvWUtqiY_13weaveback_api8coverage31build_cargo_attribution_summarys1_0B5_
FNDA:0,_RNCNvNtCsaY2CvWUtqiY_13weaveback_api8coverage31build_cargo_attribution_summarys2_0B5_
FNDA:0,_RNCNvNtCsaY2CvWUtqiY_13weaveback_api8coverage31build_cargo_attribution_summarys3_0B5_
FNDA:0,_RNCNvNtCsaY2CvWUtqiY_13weaveback_api8coverage31build_cargo_attribution_summarys4_0B5_
FNDA:0,_RNCNvNtCsaY2CvWUtqiY_13weaveback_api8coverage31build_cargo_attribution_summarys_0B5_
FNDA:0,_RNCNvNtCsaY2CvWUtqiY_13weaveback_api8coverage34build_location_attribution_summary0B5_
FNDA:0,_RNCNvNtCsaY2CvWUtqiY_13weaveback_api8coverage34build_location_attribution_summarys0_0B5_
FNDA:0,_RNCNvNtCsaY2CvWUtqiY_13weaveback_api8coverage34build_location_attribution_summarys1_0B5_
FNDA:0,_RNCNvNtCsaY2CvWUtqiY_13weaveback_api8coverage34build_location_attribution_summarys2_0B5_
FNDA:0,_RNCNvNtCsaY2CvWUtqiY_13weaveback_api8coverage34build_location_attribution_summarys3_0B5_
FNDA:0,_RNCNvNtCsaY2CvWUtqiY_13weaveback_api8coverage34build_location_attribution_summarys4_0B5_
FNDA:0,_RNCNvNtCsaY2CvWUtqiY_13weaveback_api8coverage34build_location_attribution_summarys5_0B5_
FNDA:0,_RNCNvNtCsaY2CvWUtqiY_13weaveback_api8coverage34build_location_attribution_summarys6_0B5_
FNDA:0,_RNCNvNtCsaY2CvWUtqiY_13weaveback_api8coverage34build_location_attribution_summarys7_0B5_
FNDA:0,_RNCNvNtCsaY2CvWUtqiY_13weaveback_api8coverage34build_location_attribution_summarys_0B5_
FNDA:0,_RNCNvNvNtCsaY2CvWUtqiY_13weaveback_api8coverage24scan_generated_locations26normalize_scanned_location0B7_
FNDA:0,_RNvNtCsaY2CvWUtqiY_13weaveback_api8coverage10run_impact
FNDA:0,_RNvNtCsaY2CvWUtqiY_13weaveback_api8coverage10run_search
FNDA:0,_RNvNtCsaY2CvWUtqiY_13weaveback_api8coverage12run_coverage
FNDA:0,_RNvNtCsaY2CvWUtqiY_13weaveback_api8coverage13run_attribute
FNDA:0,_RNvNtCsaY2CvWUtqiY_13weaveback_api8coverage18parse_lcov_records
FNDA:0,_RNvNtCsaY2CvWUtqiY_13weaveback_api8coverage19run_cargo_annotated
FNDA:0,_RNvNtCsaY2CvWUtqiY_13weaveback_api8coverage22build_coverage_summary
FNDA:0,_RNvNtCsaY2CvWUtqiY_13weaveback_api8coverage23compute_unmapped_ranges
FNDA:0,_RNvNtCsaY2CvWUtqiY_13weaveback_api8coverage24parse_generated_location
FNDA:0,_RNvNtCsaY2CvWUtqiY_13weaveback_api8coverage24scan_generated_locations
FNDA:0,_RNvNtCsaY2CvWUtqiY_13weaveback_api8coverage24trace_generated_location
FNDA:0,_RNvNtCsaY2CvWUtqiY_13weaveback_api8coverage25collect_text_attributions
FNDA:0,_RNvNtCsaY2CvWUtqiY_13weaveback_api8coverage26collect_cargo_attributions
FNDA:0,_RNvNtCsaY2CvWUtqiY_13weaveback_api8coverage27build_coverage_summary_view
FNDA:0,_RNvNtCsaY2CvWUtqiY_13weaveback_api8coverage31build_cargo_attribution_summary
FNDA:0,_RNvNtCsaY2CvWUtqiY_13weaveback_api8coverage31collect_cargo_span_attributions
FNDA:0,_RNvNtCsaY2CvWUtqiY_13weaveback_api8coverage34build_location_attribution_summary
FNDA:0,_RNvNtCsaY2CvWUtqiY_13weaveback_api8coverage37find_noweb_entries_for_generated_file
FNDA:0,_RNvNtCsaY2CvWUtqiY_13weaveback_api8coverage7open_db
FNDA:0,_RNvNtCsaY2CvWUtqiY_13weaveback_api8coverage8run_tags
FNDA:0,_RNvNtCsaY2CvWUtqiY_13weaveback_api8coverage9run_graph
FNDA:0,_RNvNtCsaY2CvWUtqiY_13weaveback_api8coverage9run_trace
FNDA:0,_RNvNtCsaY2CvWUtqiY_13weaveback_api8coverage9run_where
FNDA:0,_RNvNvNtCsaY2CvWUtqiY_13weaveback_api8coverage24scan_generated_locations26normalize_scanned_location
FNDA:0,_RNvXNtCsaY2CvWUtqiY_13weaveback_api8coverageNtB2_13CoverageErrorINtNtCs9yMf5VoQcqS_4core7convert4FromNtNtCs15Atq6sPk6z_16weaveback_tangle2db7DbErrorE4from
FNDA:0,_RNvXs0_NtCsaY2CvWUtqiY_13weaveback_api8coverageNtB5_13CoverageErrorINtNtCs9yMf5VoQcqS_4core7convert4FromNtNtB7_5query8ApiErrorE4from
FNDA:0,_RNvXs_NtCsaY2CvWUtqiY_13weaveback_api8coverageNtB4_13CoverageErrorINtNtCs9yMf5VoQcqS_4core7convert4FromNtNtB6_6lookup11LookupErrorE4from
FNDA:0,_RNCNvNtCs9svORWNbXMv_13weaveback_api8coverage10run_search0B5_
FNDA:0,_RNvNtCs9svORWNbXMv_13weaveback_api8coverage10run_search
FNDA:0,_RNvNtCs9svORWNbXMv_13weaveback_api8coverage19run_cargo_annotated
FNDA:1,_RNvNtCs9svORWNbXMv_13weaveback_api8coverage10run_impact
FNDA:2,_RNvNtCs9svORWNbXMv_13weaveback_api8coverage12run_coverage
FNDA:2,_RNvNtCs9svORWNbXMv_13weaveback_api8coverage13run_attribute
FNDA:5,_RNvNtCs9svORWNbXMv_13weaveback_api8coverage18parse_lcov_records
FNDA:6,_RNvNtCs9svORWNbXMv_13weaveback_api8coverage22build_coverage_summary
FNDA:5,_RNvNtCs9svORWNbXMv_13weaveback_api8coverage23compute_unmapped_ranges
FNDA:24,_RNvNtCs9svORWNbXMv_13weaveback_api8coverage24parse_generated_location
FNDA:11,_RNvNtCs9svORWNbXMv_13weaveback_api8coverage24scan_generated_locations
FNDA:9,_RNvNtCs9svORWNbXMv_13weaveback_api8coverage24trace_generated_location
FNDA:8,_RNvNtCs9svORWNbXMv_13weaveback_api8coverage25collect_text_attributions
FNDA:5,_RNvNtCs9svORWNbXMv_13weaveback_api8coverage26collect_cargo_attributions
FNDA:3,_RNvNtCs9svORWNbXMv_13weaveback_api8coverage27build_coverage_summary_view
FNDA:12,_RNvNtCs9svORWNbXMv_13weaveback_api8coverage31build_cargo_attribution_summary
FNDA:4,_RNvNtCs9svORWNbXMv_13weaveback_api8coverage31collect_cargo_span_attributions
FNDA:6,_RNvNtCs9svORWNbXMv_13weaveback_api8coverage34build_location_attribution_summary
FNDA:9,_RNvNtCs9svORWNbXMv_13weaveback_api8coverage37find_noweb_entries_for_generated_file
FNDA:7,_RNvNtCs9svORWNbXMv_13weaveback_api8coverage7open_db
FNDA:1,_RNvNtCs9svORWNbXMv_13weaveback_api8coverage8run_tags
FNDA:1,_RNvNtCs9svORWNbXMv_13weaveback_api8coverage9run_graph
FNDA:1,_RNvNtCs9svORWNbXMv_13weaveback_api8coverage9run_trace
FNDA:1,_RNvNtCs9svORWNbXMv_13weaveback_api8coverage9run_where
FNDA:9,_RNvNvNtCs9svORWNbXMv_13weaveback_api8coverage24scan_generated_locations26normalize_scanned_location
FNDA:1,_RNvXNtCs9svORWNbXMv_13weaveback_api8coverageNtB2_16CoverageApiErrorINtNtCs9yMf5VoQcqS_4core7convert4FromNtNtCsUfOgH5zVts_16weaveback_tangle2db7DbErrorE4from
FNDA:3,_RNvXs0_NtCs9svORWNbXMv_13weaveback_api8coverageNtB5_16CoverageApiErrorINtNtCs9yMf5VoQcqS_4core7convert4FromNtNtB7_5query8ApiErrorE4from
FNDA:1,_RNvXs_NtCs9svORWNbXMv_13weaveback_api8coverageNtB4_16CoverageApiErrorINtNtCs9yMf5VoQcqS_4core7convert4FromNtNtB6_6lookup11LookupErrorE4from
FNDA:2,_RNvNtNtCs9svORWNbXMv_13weaveback_api8coverage14tests_coverage13ws_write_file
FNDA:1,_RNvNtNtCs9svORWNbXMv_13weaveback_api8coverage14tests_coverages_22test_run_tags_empty_db
FNDA:1,_RNvNtNtCs9svORWNbXMv_13weaveback_api8coverage14tests_coverages_25test_run_graph_missing_db
FNDA:1,_RNvNtNtCs9svORWNbXMv_13weaveback_api8coverage14tests_coverages_26test_run_impact_missing_db
FNDA:1,_RNvNtNtCs9svORWNbXMv_13weaveback_api8coverage14tests_coverages_28parse_lcov_records_malformed
FNDA:1,_RNvNtNtCs9svORWNbXMv_13weaveback_api8coverage14tests_coverages_28test_compute_unmapped_ranges
FNDA:1,_RNvNtNtCs9svORWNbXMv_13weaveback_api8coverage14tests_coverages_28test_run_where_orchestration
FNDA:1,_RNvNtNtCs9svORWNbXMv_13weaveback_api8coverage14tests_coverages_30test_parse_lcov_records_simple
FNDA:1,_RNvNtNtCs9svORWNbXMv_13weaveback_api8coverage14tests_coverages_30test_run_coverage_summary_only
FNDA:1,_RNvNtNtCs9svORWNbXMv_13weaveback_api8coverage14tests_coverages_31test_coverage_error_conversions
FNDA:1,_RNvNtNtCs9svORWNbXMv_13weaveback_api8coverage14tests_coverages_32test_run_attribute_orchestration
FNDA:1,_RNvNtNtCs9svORWNbXMv_13weaveback_api8coverage14tests_coverages_33run_coverage_failure_missing_lcov
FNDA:1,_RNvNtNtCs9svORWNbXMv_13weaveback_api8coverage14tests_coverages_33test_emit_augmented_cargo_message
FNDA:1,_RNvNtNtCs9svORWNbXMv_13weaveback_api8coverage14tests_coverages_34coverage_error_io_displays_message
FNDA:1,_RNvNtNtCs9svORWNbXMv_13weaveback_api8coverage14tests_coverages_34test_emit_text_attribution_message
FNDA:1,_RNvNtNtCs9svORWNbXMv_13weaveback_api8coverage14tests_coverages_36build_coverage_summary_deep_sections
FNDA:1,_RNvNtNtCs9svORWNbXMv_13weaveback_api8coverage14tests_coverages_36open_db_errors_when_database_missing
FNDA:1,_RNvNtNtCs9svORWNbXMv_13weaveback_api8coverage14tests_coverages_36test_parse_generated_location_errors
FNDA:1,_RNvNtNtCs9svORWNbXMv_13weaveback_api8coverage14tests_coverages_38explain_unattributed_file_emits_ranges
FNDA:1,_RNvNtNtCs9svORWNbXMv_13weaveback_api8coverage14tests_coverages_40test_scan_generated_locations_edge_cases
FNDA:1,_RNvNtNtCs9svORWNbXMv_13weaveback_api8coverage14tests_coverages_41test_collect_cargo_attributions_with_mock
FNDA:1,_RNvNtNtCs9svORWNbXMv_13weaveback_api8coverage14tests_coverages_42parse_lcov_records_extracts_file_line_hits
FNDA:1,_RNvNtNtCs9svORWNbXMv_13weaveback_api8coverage14tests_coverages_42print_coverage_summary_prints_source_stats
FNDA:1,_RNvNtNtCs9svORWNbXMv_13weaveback_api8coverage14tests_coverages_44explain_unattributed_file_skips_empty_ranges
FNDA:1,_RNvNtNtCs9svORWNbXMv_13weaveback_api8coverage14tests_coverages_44test_run_cargo_annotated_to_writer_mega_mock
FNDA:1,_RNvNtNtCs9svORWNbXMv_13weaveback_api8coverage14tests_coverages_45parse_generated_location_parses_file_line_col
FNDA:1,_RNvNtNtCs9svORWNbXMv_13weaveback_api8coverage14tests_coverages_46parse_generated_location_parses_file_line_only
FNDA:1,_RNvNtNtCs9svORWNbXMv_13weaveback_api8coverage14tests_coverages_46scan_generated_locations_extracts_unique_specs
FNDA:1,_RNvNtNtCs9svORWNbXMv_13weaveback_api8coverage14tests_coverages_46test_collect_text_attributions_scans_locations
FNDA:1,_RNvNtNtCs9svORWNbXMv_13weaveback_api8coverage14tests_coverages_48parse_generated_location_errors_on_missing_colon
FNDA:1,_RNvNtNtCs9svORWNbXMv_13weaveback_api8coverage14tests_coverages_48print_coverage_summary_shows_attributed_vs_total
FNDA:1,_RNvNtNtCs9svORWNbXMv_13weaveback_api8coverage14tests_coverages_49parse_generated_location_errors_on_bad_col_number
FNDA:1,_RNvNtNtCs9svORWNbXMv_13weaveback_api8coverage14tests_coverages_49print_coverage_summary_reports_unattributed_files
FNDA:1,_RNvNtNtCs9svORWNbXMv_13weaveback_api8coverage14tests_coverages_50parse_generated_location_errors_on_bad_line_number
FNDA:1,_RNvNtNtCs9svORWNbXMv_13weaveback_api8coverage14tests_coverages_51build_coverage_summary_view_keeps_ranked_top_slices
FNDA:1,_RNvNtNtCs9svORWNbXMv_13weaveback_api8coverage14tests_coverages_51emit_cargo_summary_message_emits_final_grouped_json
FNDA:1,_RNvNtNtCs9svORWNbXMv_13weaveback_api8coverage14tests_coverages_51emit_cargo_summary_message_outputs_json_with_reason
FNDA:1,_RNvNtNtCs9svORWNbXMv_13weaveback_api8coverage14tests_coverages_51emit_text_attribution_message_wraps_plain_text_line
FNDA:1,_RNvNtNtCs9svORWNbXMv_13weaveback_api8coverage14tests_coverages_51test_run_cargo_annotated_to_writer_diagnostics_only
FNDA:1,_RNvNtNtCs9svORWNbXMv_13weaveback_api8coverage14tests_coverages_52collect_text_attributions_scans_and_traces_locations
FNDA:1,_RNvNtNtCs9svORWNbXMv_13weaveback_api8coverage14tests_coverages_53build_cargo_attribution_summary_groups_by_source_file
FNDA:1,_RNvNtNtCs9svORWNbXMv_13weaveback_api8coverage14tests_coverages_53build_coverage_summary_groups_lines_by_source_section
FNDA:1,_RNvNtNtCs9svORWNbXMv_13weaveback_api8coverage14tests_coverages_53build_coverage_summary_view_preserves_metadata_fields
FNDA:1,_RNvNtNtCs9svORWNbXMv_13weaveback_api8coverage14tests_coverages_53emit_augmented_cargo_message_attaches_full_trace_json
FNDA:1,_RNvNtNtCs9svORWNbXMv_13weaveback_api8coverage14tests_coverages_54parse_generated_location_accepts_line_and_optional_col
FNDA:1,_RNvNtNtCs9svORWNbXMv_13weaveback_api8coverage14tests_coverages_55build_coverage_summary_marks_partial_unattributed_files
FNDA:1,_RNvNtNtCs9svORWNbXMv_13weaveback_api8coverage14tests_coverages_58build_coverage_summary_view_truncates_sources_and_sections
FNDA:1,_RNvNtNtCs9svORWNbXMv_13weaveback_api8coverage14tests_coverages_60build_location_attribution_summary_groups_successful_records
FNDA:1,_RNvNtNtCs9svORWNbXMv_13weaveback_api8coverage14tests_coverages_60collect_cargo_span_attributions_keeps_generated_span_context
FNDA:1,_RNvNtNtCs9svORWNbXMv_13weaveback_api8coverage14tests_coverages_61collect_cargo_attributions_maps_generated_span_back_to_source
FNDA:1,_RNvNtNtCs9svORWNbXMv_13weaveback_api8coverage14tests_coverages_63build_location_attribution_summary_groups_by_source_and_section
FNDA:1,_RNvNtNtCs9svORWNbXMv_13weaveback_api8coverage14tests_coverages_63build_location_attribution_summary_returns_empty_for_no_records
FNDA:1,_RNvNtNtCs9svORWNbXMv_13weaveback_api8coverage14tests_coverages_65build_coverage_summary_sorts_sources_and_sections_by_missed_lines
FNDA:1,_RNvNtNtCs9svORWNbXMv_13weaveback_api8coverage14tests_coverages_65run_cargo_annotated_to_writer_traces_real_generated_compile_error
FNDA:1,_RNvNtNtCs9svORWNbXMv_13weaveback_api8coverage14tests_coverages_69run_cargo_annotated_to_writer_emits_text_attribution_for_text_warning
FNDA:1,_RNvNtNtCs9svORWNbXMv_13weaveback_api8coverage14tests_coverages_69scan_generated_locations_trims_punctuation_and_supports_windows_paths
FNDA:1,_RNvNtNtCs9svORWNbXMv_13weaveback_api8coverage14tests_coverages_70find_noweb_entries_for_generated_file_rejects_ambiguous_short_suffixes
FNDA:2,_RINvNtCs9svORWNbXMv_13weaveback_api8coverage25explain_unattributed_fileINtNtCsjjC6uJeAzJn_5alloc3vec3VechEEB4_
FNDA:0,_RINvNtCs9svORWNbXMv_13weaveback_api8coverage25explain_unattributed_fileQINtNtCsjjC6uJeAzJn_5alloc3vec3VechEEB4_
FNDA:0,_RINvNtCs9svORWNbXMv_13weaveback_api8coverage25explain_unattributed_fileQNtNtNtCshbt5Cx3aOt7_3std2io5stdio6StdoutEB4_
FNDA:2,_RINvNtCs9svORWNbXMv_13weaveback_api8coverage26emit_cargo_summary_messageQINtNtCsjjC6uJeAzJn_5alloc3vec3VechEEB4_
FNDA:4,_RINvNtCs9svORWNbXMv_13weaveback_api8coverage26emit_cargo_summary_messageQQINtNtCsjjC6uJeAzJn_5alloc3vec3VechEEB4_
FNDA:2,_RINvNtCs9svORWNbXMv_13weaveback_api8coverage28emit_augmented_cargo_messageQINtNtCsjjC6uJeAzJn_5alloc3vec3VechEEB4_
FNDA:3,_RINvNtCs9svORWNbXMv_13weaveback_api8coverage28emit_augmented_cargo_messageQQINtNtCsjjC6uJeAzJn_5alloc3vec3VechEEB4_
FNDA:2,_RINvNtCs9svORWNbXMv_13weaveback_api8coverage29emit_text_attribution_messageQINtNtCsjjC6uJeAzJn_5alloc3vec3VechEEB4_
FNDA:1,_RINvNtCs9svORWNbXMv_13weaveback_api8coverage29emit_text_attribution_messageQQINtNtCsjjC6uJeAzJn_5alloc3vec3VechEEB4_
FNDA:4,_RINvNtCs9svORWNbXMv_13weaveback_api8coverage29run_cargo_annotated_to_writerQINtNtCsjjC6uJeAzJn_5alloc3vec3VechEEB4_
FNDA:3,_RINvNtCs9svORWNbXMv_13weaveback_api8coverage32print_coverage_summary_to_writerQINtNtCsjjC6uJeAzJn_5alloc3vec3VechEEB4_
FNDA:1,_RINvNtCs9svORWNbXMv_13weaveback_api8coverage32print_coverage_summary_to_writerQNtNtNtCshbt5Cx3aOt7_3std2io5stdio6StdoutEB4_
FNDA:0,_RNCINvNtCs9svORWNbXMv_13weaveback_api8coverage25explain_unattributed_fileINtNtCsjjC6uJeAzJn_5alloc3vec3VechEE0B6_
FNDA:0,_RNCINvNtCs9svORWNbXMv_13weaveback_api8coverage25explain_unattributed_fileQINtNtCsjjC6uJeAzJn_5alloc3vec3VechEE0B6_
FNDA:0,_RNCINvNtCs9svORWNbXMv_13weaveback_api8coverage25explain_unattributed_fileQNtNtNtCshbt5Cx3aOt7_3std2io5stdio6StdoutE0B6_
FNDA:7,_RNCINvNtCs9svORWNbXMv_13weaveback_api8coverage29run_cargo_annotated_to_writerQINtNtCsjjC6uJeAzJn_5alloc3vec3VechEE0B6_
FNDA:2,_RNCINvNtCs9svORWNbXMv_13weaveback_api8coverage29run_cargo_annotated_to_writerQINtNtCsjjC6uJeAzJn_5alloc3vec3VechEEs0_0B6_
FNDA:0,_RNCINvNtCs9svORWNbXMv_13weaveback_api8coverage29run_cargo_annotated_to_writerQINtNtCsjjC6uJeAzJn_5alloc3vec3VechEEs1_0B6_
FNDA:0,_RNCINvNtCs9svORWNbXMv_13weaveback_api8coverage29run_cargo_annotated_to_writerQINtNtCsjjC6uJeAzJn_5alloc3vec3VechEEs2_0B6_
FNDA:4,_RNCINvNtCs9svORWNbXMv_13weaveback_api8coverage29run_cargo_annotated_to_writerQINtNtCsjjC6uJeAzJn_5alloc3vec3VechEEs3_0B6_
FNDA:7,_RNCINvNtCs9svORWNbXMv_13weaveback_api8coverage29run_cargo_annotated_to_writerQINtNtCsjjC6uJeAzJn_5alloc3vec3VechEEs_0B6_
FNDA:1,_RNCINvNtCs9svORWNbXMv_13weaveback_api8coverage32print_coverage_summary_to_writerQINtNtCsjjC6uJeAzJn_5alloc3vec3VechEE0B6_
FNDA:0,_RNCINvNtCs9svORWNbXMv_13weaveback_api8coverage32print_coverage_summary_to_writerQINtNtCsjjC6uJeAzJn_5alloc3vec3VechEEs_0B6_
FNDA:0,_RNCINvNtCs9svORWNbXMv_13weaveback_api8coverage32print_coverage_summary_to_writerQNtNtNtCshbt5Cx3aOt7_3std2io5stdio6StdoutE0B6_
FNDA:0,_RNCINvNtCs9svORWNbXMv_13weaveback_api8coverage32print_coverage_summary_to_writerQNtNtNtCshbt5Cx3aOt7_3std2io5stdio6StdoutEs_0B6_
FNDA:2,_RNCNCINvNtCs9svORWNbXMv_13weaveback_api8coverage32print_coverage_summary_to_writerQINtNtCsjjC6uJeAzJn_5alloc3vec3VechEE00B8_
FNDA:0,_RNCNCINvNtCs9svORWNbXMv_13weaveback_api8coverage32print_coverage_summary_to_writerQNtNtNtCshbt5Cx3aOt7_3std2io5stdio6StdoutE00B8_
FNDA:0,_RNCNCNCNCNCNvNtCs9svORWNbXMv_13weaveback_api8coverage22build_coverage_summarysc_0s_0000Bd_
FNDA:0,_RNCNCNCNCNCNvNtCs9svORWNbXMv_13weaveback_api8coverage22build_coverage_summarysc_0s_00s_00Bd_
FNDA:0,_RNCNCNCNCNvNtCs9svORWNbXMv_13weaveback_api8coverage22build_coverage_summarysc_0s_000Bb_
FNDA:0,_RNCNCNCNCNvNtCs9svORWNbXMv_13weaveback_api8coverage22build_coverage_summarysc_0s_00s_0Bb_
FNDA:0,_RNCNCNCNvNtCs9svORWNbXMv_13weaveback_api8coverage22build_coverage_summarysc_0s_00B9_
FNDA:3,_RNCNCNCNvNtCs9svORWNbXMv_13weaveback_api8coverage27build_coverage_summary_view000B9_
FNDA:3,_RNCNCNvNtCs9svORWNbXMv_13weaveback_api8coverage22build_coverage_summarys1_00B7_
FNDA:15,_RNCNCNvNtCs9svORWNbXMv_13weaveback_api8coverage22build_coverage_summarys9_00B7_
FNDA:5,_RNCNCNvNtCs9svORWNbXMv_13weaveback_api8coverage22build_coverage_summarysc_00B7_
FNDA:1,_RNCNCNvNtCs9svORWNbXMv_13weaveback_api8coverage22build_coverage_summarysc_0s_0B7_
FNDA:0,_RNCNCNvNtCs9svORWNbXMv_13weaveback_api8coverage22build_coverage_summarysd_00B7_
FNDA:0,_RNCNCNvNtCs9svORWNbXMv_13weaveback_api8coverage22build_coverage_summarysf_00B7_
FNDA:3,_RNCNCNvNtCs9svORWNbXMv_13weaveback_api8coverage27build_coverage_summary_view00B7_
FNDA:16,_RNCNCNvNtCs9svORWNbXMv_13weaveback_api8coverage31build_cargo_attribution_summarys2_00B7_
FNDA:6,_RNCNCNvNtCs9svORWNbXMv_13weaveback_api8coverage31build_cargo_attribution_summarys4_00B7_
FNDA:2,_RNCNCNvNtCs9svORWNbXMv_13weaveback_api8coverage31build_cargo_attribution_summarys_00B7_
FNDA:2,_RNCNCNvNtCs9svORWNbXMv_13weaveback_api8coverage34build_location_attribution_summarys0_00B7_
FNDA:10,_RNCNCNvNtCs9svORWNbXMv_13weaveback_api8coverage34build_location_attribution_summarys3_00B7_
FNDA:5,_RNCNCNvNtCs9svORWNbXMv_13weaveback_api8coverage34build_location_attribution_summarys7_00B7_
FNDA:0,_RNCNCNvNtCs9svORWNbXMv_13weaveback_api8coverage34build_location_attribution_summarys7_0s_0B7_
FNDA:0,_RNCNvNtCs9svORWNbXMv_13weaveback_api8coverage13run_attribute0B5_
FNDA:0,_RNCNvNtCs9svORWNbXMv_13weaveback_api8coverage13run_attributes_0B5_
FNDA:9,_RNCNvNtCs9svORWNbXMv_13weaveback_api8coverage18parse_lcov_records0B5_
FNDA:9,_RNCNvNtCs9svORWNbXMv_13weaveback_api8coverage18parse_lcov_recordss_0B5_
FNDA:11,_RNCNvNtCs9svORWNbXMv_13weaveback_api8coverage22build_coverage_summary0B5_
FNDA:1,_RNCNvNtCs9svORWNbXMv_13weaveback_api8coverage22build_coverage_summarys0_0B5_
FNDA:3,_RNCNvNtCs9svORWNbXMv_13weaveback_api8coverage22build_coverage_summarys1_0B5_
FNDA:0,_RNCNvNtCs9svORWNbXMv_13weaveback_api8coverage22build_coverage_summarys2_0B5_
FNDA:0,_RNCNvNtCs9svORWNbXMv_13weaveback_api8coverage22build_coverage_summarys3_0B5_
FNDA:5,_RNCNvNtCs9svORWNbXMv_13weaveback_api8coverage22build_coverage_summarys4_0B5_
FNDA:5,_RNCNvNtCs9svORWNbXMv_13weaveback_api8coverage22build_coverage_summarys5_0B5_
FNDA:5,_RNCNvNtCs9svORWNbXMv_13weaveback_api8coverage22build_coverage_summarys6_0B5_
FNDA:5,_RNCNvNtCs9svORWNbXMv_13weaveback_api8coverage22build_coverage_summarys7_0B5_
FNDA:7,_RNCNvNtCs9svORWNbXMv_13weaveback_api8coverage22build_coverage_summarys8_0B5_
FNDA:7,_RNCNvNtCs9svORWNbXMv_13weaveback_api8coverage22build_coverage_summarys9_0B5_
FNDA:1,_RNCNvNtCs9svORWNbXMv_13weaveback_api8coverage22build_coverage_summarys_0B5_
FNDA:7,_RNCNvNtCs9svORWNbXMv_13weaveback_api8coverage22build_coverage_summarysa_0B5_
FNDA:5,_RNCNvNtCs9svORWNbXMv_13weaveback_api8coverage22build_coverage_summarysb_0B5_
FNDA:4,_RNCNvNtCs9svORWNbXMv_13weaveback_api8coverage22build_coverage_summarysc_0B5_
FNDA:1,_RNCNvNtCs9svORWNbXMv_13weaveback_api8coverage22build_coverage_summarysd_0B5_
FNDA:4,_RNCNvNtCs9svORWNbXMv_13weaveback_api8coverage22build_coverage_summaryse_0B5_
FNDA:0,_RNCNvNtCs9svORWNbXMv_13weaveback_api8coverage22build_coverage_summarysf_0B5_
FNDA:8,_RNCNvNtCs9svORWNbXMv_13weaveback_api8coverage23compute_unmapped_ranges0B5_
FNDA:0,_RNCNvNtCs9svORWNbXMv_13weaveback_api8coverage24parse_generated_location0B5_
FNDA:0,_RNCNvNtCs9svORWNbXMv_13weaveback_api8coverage24parse_generated_locations0_0B5_
FNDA:2,_RNCNvNtCs9svORWNbXMv_13weaveback_api8coverage24parse_generated_locations1_0B5_
FNDA:2,_RNCNvNtCs9svORWNbXMv_13weaveback_api8coverage24parse_generated_locations2_0B5_
FNDA:3,_RNCNvNtCs9svORWNbXMv_13weaveback_api8coverage24parse_generated_locations_0B5_
FNDA:9,_RNCNvNtCs9svORWNbXMv_13weaveback_api8coverage24scan_generated_locations0B5_
FNDA:0,_RNCNvNtCs9svORWNbXMv_13weaveback_api8coverage24trace_generated_location0B5_
FNDA:3,_RNCNvNtCs9svORWNbXMv_13weaveback_api8coverage27build_coverage_summary_view0B5_
FNDA:3,_RNCNvNtCs9svORWNbXMv_13weaveback_api8coverage27build_coverage_summary_views0_0B5_
FNDA:0,_RNCNvNtCs9svORWNbXMv_13weaveback_api8coverage27build_coverage_summary_views1_0B5_
FNDA:0,_RNCNvNtCs9svORWNbXMv_13weaveback_api8coverage27build_coverage_summary_views_0B5_
FNDA:6,_RNCNvNtCs9svORWNbXMv_13weaveback_api8coverage31build_cargo_attribution_summary0B5_
FNDA:8,_RNCNvNtCs9svORWNbXMv_13weaveback_api8coverage31build_cargo_attribution_summarys0_0B5_
FNDA:8,_RNCNvNtCs9svORWNbXMv_13weaveback_api8coverage31build_cargo_attribution_summarys1_0B5_
FNDA:8,_RNCNvNtCs9svORWNbXMv_13weaveback_api8coverage31build_cargo_attribution_summarys2_0B5_
FNDA:6,_RNCNvNtCs9svORWNbXMv_13weaveback_api8coverage31build_cargo_attribution_summarys3_0B5_
FNDA:6,_RNCNvNtCs9svORWNbXMv_13weaveback_api8coverage31build_cargo_attribution_summarys4_0B5_
FNDA:2,_RNCNvNtCs9svORWNbXMv_13weaveback_api8coverage31build_cargo_attribution_summarys_0B5_
FNDA:8,_RNCNvNtCs9svORWNbXMv_13weaveback_api8coverage34build_location_attribution_summary0B5_
FNDA:2,_RNCNvNtCs9svORWNbXMv_13weaveback_api8coverage34build_location_attribution_summarys0_0B5_
FNDA:6,_RNCNvNtCs9svORWNbXMv_13weaveback_api8coverage34build_location_attribution_summarys1_0B5_
FNDA:5,_RNCNvNtCs9svORWNbXMv_13weaveback_api8coverage34build_location_attribution_summarys2_0B5_
FNDA:5,_RNCNvNtCs9svORWNbXMv_13weaveback_api8coverage34build_location_attribution_summarys3_0B5_
FNDA:6,_RNCNvNtCs9svORWNbXMv_13weaveback_api8coverage34build_location_attribution_summarys4_0B5_
FNDA:2,_RNCNvNtCs9svORWNbXMv_13weaveback_api8coverage34build_location_attribution_summarys5_0B5_
FNDA:8,_RNCNvNtCs9svORWNbXMv_13weaveback_api8coverage34build_location_attribution_summarys6_0B5_
FNDA:5,_RNCNvNtCs9svORWNbXMv_13weaveback_api8coverage34build_location_attribution_summarys7_0B5_
FNDA:4,_RNCNvNtCs9svORWNbXMv_13weaveback_api8coverage34build_location_attribution_summarys_0B5_
FNDA:20,_RNCNvNvNtCs9svORWNbXMv_13weaveback_api8coverage24scan_generated_locations26normalize_scanned_location0B7_
FNDA:1,_RNCNCNCNCNvNtNtCs9svORWNbXMv_13weaveback_api8coverage14tests_coverages_65run_cargo_annotated_to_writer_traces_real_generated_compile_errors2_0000Bd_
FNDA:1,_RNCNCNCNvNtNtCs9svORWNbXMv_13weaveback_api8coverage14tests_coverages_65run_cargo_annotated_to_writer_traces_real_generated_compile_errors2_000Bb_
FNDA:1,_RNCNCNvNtNtCs9svORWNbXMv_13weaveback_api8coverage14tests_coverages_65run_cargo_annotated_to_writer_traces_real_generated_compile_errors1_00B9_
FNDA:1,_RNCNCNvNtNtCs9svORWNbXMv_13weaveback_api8coverage14tests_coverages_65run_cargo_annotated_to_writer_traces_real_generated_compile_errors1_0s_0B9_
FNDA:1,_RNCNCNvNtNtCs9svORWNbXMv_13weaveback_api8coverage14tests_coverages_65run_cargo_annotated_to_writer_traces_real_generated_compile_errors2_00B9_
FNDA:1,_RNCNCNvNtNtCs9svORWNbXMv_13weaveback_api8coverage14tests_coverages_69run_cargo_annotated_to_writer_emits_text_attribution_for_text_warnings0_00B9_
FNDA:1,_RNCNvNtNtCs9svORWNbXMv_13weaveback_api8coverage14tests_coverages_36build_coverage_summary_deep_sections0B7_
FNDA:1,_RNCNvNtNtCs9svORWNbXMv_13weaveback_api8coverage14tests_coverages_53build_coverage_summary_groups_lines_by_source_section0B7_
FNDA:1,_RNCNvNtNtCs9svORWNbXMv_13weaveback_api8coverage14tests_coverages_61collect_cargo_attributions_maps_generated_span_back_to_source0B7_
FNDA:2,_RNCNvNtNtCs9svORWNbXMv_13weaveback_api8coverage14tests_coverages_63build_location_attribution_summary_groups_by_source_and_section0B7_
FNDA:1,_RNCNvNtNtCs9svORWNbXMv_13weaveback_api8coverage14tests_coverages_65build_coverage_summary_sorts_sources_and_sections_by_missed_lines0B7_
FNDA:3,_RNCNvNtNtCs9svORWNbXMv_13weaveback_api8coverage14tests_coverages_65run_cargo_annotated_to_writer_traces_real_generated_compile_error0B7_
FNDA:3,_RNCNvNtNtCs9svORWNbXMv_13weaveback_api8coverage14tests_coverages_65run_cargo_annotated_to_writer_traces_real_generated_compile_errors0_0B7_
FNDA:1,_RNCNvNtNtCs9svORWNbXMv_13weaveback_api8coverage14tests_coverages_65run_cargo_annotated_to_writer_traces_real_generated_compile_errors1_0B7_
FNDA:1,_RNCNvNtNtCs9svORWNbXMv_13weaveback_api8coverage14tests_coverages_65run_cargo_annotated_to_writer_traces_real_generated_compile_errors2_0B7_
FNDA:1,_RNCNvNtNtCs9svORWNbXMv_13weaveback_api8coverage14tests_coverages_65run_cargo_annotated_to_writer_traces_real_generated_compile_errors_0B7_
FNDA:3,_RNCNvNtNtCs9svORWNbXMv_13weaveback_api8coverage14tests_coverages_69run_cargo_annotated_to_writer_emits_text_attribution_for_text_warning0B7_
FNDA:1,_RNCNvNtNtCs9svORWNbXMv_13weaveback_api8coverage14tests_coverages_69run_cargo_annotated_to_writer_emits_text_attribution_for_text_warnings0_0B7_
FNDA:2,_RNCNvNtNtCs9svORWNbXMv_13weaveback_api8coverage14tests_coverages_69run_cargo_annotated_to_writer_emits_text_attribution_for_text_warnings_0B7_
FNF:195
FNH:167
DA:24,1
DA:25,0
DA:26,1
DA:30,1
DA:31,1
DA:32,0
DA:33,0
DA:34,1
DA:35,1
DA:36,1
DA:38,1
DA:42,3
DA:43,3
DA:44,0
DA:45,3
DA:47,3
DA:49,0
DA:50,7
DA:51,2
DA:52,2
DA:53,2
DA:54,2
DA:55,5
DA:56,5
DA:57,7
DA:59,0
DA:60,24
DA:61,24
DA:62,0
DA:63,0
DA:64,0
DA:65,0
DA:66,0
DA:67,24
DA:68,3
DA:69,3
DA:70,3
DA:71,3
DA:72,3
DA:74,21
DA:75,12
DA:76,0
DA:77,0
DA:78,0
DA:79,0
DA:80,0
DA:81,12
DA:82,2
DA:83,2
DA:84,2
DA:85,2
DA:86,2
DA:87,10
DA:89,9
DA:90,2
DA:91,2
DA:92,2
DA:93,2
DA:94,2
DA:95,7
DA:97,24
DA:99,11
DA:100,9
DA:101,9
DA:102,20
DA:103,9
DA:104,9
DA:105,0
DA:106,9
DA:107,9
DA:108,9
DA:110,11
DA:111,11
DA:112,11
DA:113,11
DA:114,11
DA:115,9
DA:116,9
DA:117,9
DA:119,0
DA:121,9
DA:122,7
DA:123,7
DA:125,11
DA:126,11
DA:128,0
DA:129,1
DA:130,1
DA:131,1
DA:133,1
DA:134,0
DA:135,0
DA:136,0
DA:139,1
DA:140,1
DA:142,0
DA:143,0
DA:145,0
DA:146,0
DA:148,1
DA:150,0
DA:151,0
DA:152,0
DA:153,0
DA:154,0
DA:155,0
DA:156,0
DA:157,0
DA:158,2
DA:159,0
DA:160,0
DA:161,0
DA:162,0
DA:163,0
DA:164,0
DA:165,0
DA:166,2
DA:167,2
DA:168,1
DA:169,1
DA:170,1
DA:171,1
DA:172,1
DA:173,1
DA:174,1
DA:175,1
DA:176,0
DA:178,0
DA:179,0
DA:180,0
DA:181,0
DA:183,0
DA:184,0
DA:185,0
DA:186,0
DA:187,0
DA:188,0
DA:189,0
DA:191,0
DA:192,0
DA:193,0
DA:194,0
DA:196,0
DA:197,0
DA:198,0
DA:199,0
DA:200,0
DA:202,0
DA:203,0
DA:207,0
DA:208,0
DA:210,0
DA:211,0
DA:212,0
DA:213,0
DA:214,0
DA:215,0
DA:217,0
DA:219,0
DA:220,0
DA:221,0
DA:222,0
DA:223,2
DA:225,5
DA:226,5
DA:227,5
DA:229,25
DA:230,25
DA:231,8
DA:232,8
DA:233,17
DA:234,17
DA:235,7
DA:236,7
DA:237,10
DA:238,10
DA:239,1
DA:241,9
DA:242,0
DA:244,9
DA:245,9
DA:246,0
DA:248,9
DA:249,0
DA:251,9
DA:254,5
DA:255,5
DA:257,6
DA:258,6
DA:259,6
DA:260,6
DA:261,6
DA:262,6
DA:295,6
DA:296,6
DA:297,6
DA:298,6
DA:299,6
DA:300,6
DA:301,6
DA:302,6
DA:303,6
DA:304,6
DA:305,6
DA:306,6
DA:307,6
DA:308,6
DA:310,11
DA:311,11
DA:312,3
DA:314,8
DA:315,8
DA:316,8
DA:317,8
DA:318,8
DA:321,11
DA:322,11
DA:323,11
DA:325,4
DA:326,4
DA:327,4
DA:328,4
DA:329,4
DA:330,4
DA:331,4
DA:332,4
DA:333,4
DA:334,4
DA:335,4
DA:337,4
DA:338,4
DA:339,4
DA:340,4
DA:341,2
DA:342,2
DA:343,2
DA:344,2
DA:345,4
DA:346,4
DA:347,0
DA:348,4
DA:349,0
DA:351,4
DA:352,0
DA:353,4
DA:354,0
DA:356,4
DA:357,4
DA:360,7
DA:361,7
DA:363,7
DA:364,7
DA:365,7
DA:366,3
DA:367,3
DA:368,2
DA:370,1
DA:372,3
DA:373,3
DA:374,2
DA:376,5
DA:377,1
DA:379,4
DA:380,0
DA:381,0
DA:382,0
DA:383,0
DA:384,0
DA:385,0
DA:386,0
DA:387,0
DA:388,0
DA:389,0
DA:390,0
DA:392,0
DA:393,0
DA:394,0
DA:395,0
DA:396,0
DA:397,0
DA:398,0
DA:399,0
DA:400,0
DA:401,0
DA:402,0
DA:403,0
DA:404,0
DA:406,0
DA:407,0
DA:408,0
DA:409,0
DA:411,0
DA:412,0
DA:414,4
DA:415,4
DA:417,5
DA:418,5
DA:419,5
DA:420,5
DA:421,5
DA:422,5
DA:423,5
DA:424,5
DA:425,5
DA:426,5
DA:427,5
DA:428,5
DA:429,5
DA:430,5
DA:431,5
DA:432,5
DA:435,7
DA:436,7
DA:437,7
DA:438,7
DA:439,7
DA:440,7
DA:441,7
DA:442,7
DA:443,7
DA:445,7
DA:446,7
DA:447,7
DA:449,7
DA:450,7
DA:451,7
DA:452,7
DA:453,7
DA:454,7
DA:455,15
DA:456,7
DA:457,7
DA:458,7
DA:459,7
DA:460,0
DA:462,7
DA:464,7
DA:465,7
DA:466,7
DA:467,7
DA:468,7
DA:469,7
DA:470,7
DA:471,7
DA:472,7
DA:473,7
DA:474,7
DA:475,7
DA:478,7
DA:479,7
DA:480,7
DA:481,3
DA:482,4
DA:483,4
DA:484,4
DA:485,7
DA:486,7
DA:487,7
DA:489,7
DA:490,7
DA:491,7
DA:492,3
DA:493,4
DA:494,4
DA:495,4
DA:496,7
DA:497,7
DA:498,7
DA:499,7
DA:500,7
DA:501,5
DA:502,5
DA:503,5
DA:504,5
DA:505,2
DA:506,7
DA:507,5
DA:508,5
DA:509,7
DA:510,5
DA:511,5
DA:514,6
DA:515,6
DA:516,6
DA:517,4
DA:518,4
DA:519,4
DA:520,5
DA:521,5
DA:522,5
DA:523,5
DA:524,5
DA:525,5
DA:526,5
DA:527,5
DA:528,5
DA:529,5
DA:531,5
DA:532,4
DA:533,4
DA:534,1
DA:535,1
DA:536,1
DA:537,0
DA:538,0
DA:539,0
DA:540,0
DA:541,0
DA:542,0
DA:543,0
DA:544,0
DA:545,0
DA:546,0
DA:547,0
DA:548,0
DA:549,0
DA:550,0
DA:551,0
DA:552,0
DA:553,0
DA:554,0
DA:555,0
DA:556,0
DA:557,0
DA:558,0
DA:559,1
DA:561,4
DA:562,4
DA:563,4
DA:564,4
DA:565,4
DA:566,4
DA:567,4
DA:569,4
DA:570,6
DA:571,6
DA:572,1
DA:573,1
DA:574,1
DA:575,0
DA:576,0
DA:577,0
DA:578,0
DA:579,1
DA:581,6
DA:582,6
DA:583,6
DA:584,4
DA:585,4
DA:586,4
DA:587,4
DA:588,4
DA:589,4
DA:590,4
DA:591,4
DA:592,4
DA:593,4
DA:594,4
DA:596,4
DA:597,6
DA:598,6
DA:599,0
DA:600,0
DA:601,0
DA:602,0
DA:603,0
DA:604,0
DA:605,0
DA:606,0
DA:608,6
DA:609,6
DA:610,6
DA:611,6
DA:612,6
DA:613,6
DA:614,6
DA:616,6
DA:618,9
DA:619,9
DA:620,9
DA:621,9
DA:622,9
DA:623,9
DA:624,9
DA:625,9
DA:626,9
DA:627,0
DA:628,0
DA:629,0
DA:630,0
DA:631,9
DA:633,9
DA:634,9
DA:635,9
DA:637,5
DA:638,4
DA:639,4
DA:640,0
DA:641,0
DA:643,0
DA:644,0
DA:648,4
DA:649,9
DA:655,5
DA:656,5
DA:657,5
DA:658,8
DA:659,8
DA:660,8
DA:661,8
DA:662,8
DA:663,5
DA:664,5
DA:665,5
DA:667,5
DA:668,8
DA:669,8
DA:670,8
DA:671,3
DA:672,3
DA:673,2
DA:674,2
DA:675,2
DA:676,2
DA:677,2
DA:678,2
DA:679,1
DA:680,5
DA:681,6
DA:682,6
DA:683,6
DA:684,6
DA:687,5
DA:688,5
DA:693,2
DA:694,2
DA:695,2
DA:696,2
DA:697,2
DA:698,2
DA:699,2
DA:700,1
DA:702,1
DA:704,1
DA:705,0
DA:706,0
DA:707,0
DA:708,0
DA:710,1
DA:713,1
DA:714,1
DA:715,1
DA:716,1
DA:717,1
DA:718,1
DA:719,1
DA:720,0
DA:721,0
DA:722,0
DA:723,0
DA:724,0
DA:726,1
DA:728,1
DA:729,2
DA:731,4
DA:732,4
DA:733,4
DA:734,4
DA:735,4
DA:736,4
DA:737,4
DA:738,4
DA:739,4
DA:741,4
DA:742,4
DA:743,0
DA:745,4
DA:746,4
DA:747,1
DA:748,1
DA:749,1
DA:750,1
DA:751,1
DA:752,0
DA:754,1
DA:756,1
DA:757,1
DA:758,1
DA:759,1
DA:760,1
DA:761,1
DA:762,1
DA:763,1
DA:764,2
DA:765,1
DA:766,1
DA:767,1
DA:768,1
DA:769,1
DA:770,1
DA:771,1
DA:772,1
DA:773,0
DA:775,1
DA:777,1
DA:778,1
DA:780,0
DA:782,0
DA:784,0
DA:786,4
DA:787,4
DA:788,2
DA:789,2
DA:790,2
DA:791,2
DA:792,2
DA:793,2
DA:794,2
DA:795,2
DA:796,0
DA:798,2
DA:800,2
DA:801,2
DA:803,0
DA:804,2
DA:805,0
DA:806,0
DA:807,0
DA:809,2
DA:811,2
DA:812,0
DA:813,2
DA:815,0
DA:816,2
DA:817,4
DA:818,4
DA:820,3
DA:821,3
DA:822,3
DA:823,3
DA:824,3
DA:825,3
DA:826,3
DA:827,3
DA:828,3
DA:830,3
DA:831,3
DA:832,3
DA:833,3
DA:834,3
DA:835,3
DA:836,3
DA:837,3
DA:838,3
DA:839,3
DA:840,3
DA:841,3
DA:842,3
DA:843,3
DA:844,3
DA:845,3
DA:846,3
DA:847,3
DA:848,3
DA:850,3
DA:851,3
DA:853,3
DA:854,3
DA:855,3
DA:856,3
DA:857,3
DA:858,3
DA:859,3
DA:860,3
DA:861,3
DA:862,3
DA:863,3
DA:864,3
DA:865,3
DA:866,3
DA:869,0
DA:870,3
DA:871,3
DA:873,0
DA:874,0
DA:875,0
DA:876,0
DA:877,0
DA:878,0
DA:879,0
DA:880,0
DA:881,0
DA:882,2
DA:883,1
DA:884,1
DA:885,1
DA:886,1
DA:887,1
DA:888,1
DA:889,1
DA:890,1
DA:891,0
DA:892,0
DA:893,0
DA:894,0
DA:895,1
DA:896,2
DA:917,5
DA:918,5
DA:919,5
DA:920,5
DA:921,5
DA:922,5
DA:923,5
DA:924,5
DA:925,2
DA:927,3
DA:928,3
DA:930,3
DA:931,3
DA:932,3
DA:933,3
DA:934,3
DA:935,3
DA:936,3
DA:937,3
DA:938,3
DA:939,3
DA:940,0
DA:943,3
DA:944,3
DA:945,3
DA:946,3
DA:949,3
DA:950,5
DA:952,4
DA:953,4
DA:954,4
DA:955,4
DA:956,4
DA:957,4
DA:958,4
DA:959,4
DA:960,2
DA:962,2
DA:963,2
DA:965,3
DA:966,3
DA:967,3
DA:968,3
DA:969,3
DA:970,3
DA:971,3
DA:972,3
DA:973,3
DA:974,3
DA:975,0
DA:978,3
DA:979,3
DA:980,3
DA:981,3
DA:982,3
DA:983,3
DA:985,3
DA:986,3
DA:987,3
DA:988,3
DA:991,2
DA:992,4
DA:994,9
DA:995,9
DA:996,9
DA:997,9
DA:998,9
DA:999,9
DA:1000,9
DA:1001,9
DA:1002,9
DA:1003,9
DA:1004,9
DA:1006,9
DA:1007,0
DA:1009,0
DA:1010,0
DA:1011,0
DA:1012,0
DA:1013,0
DA:1014,0
DA:1015,0
DA:1016,0
DA:1017,9
DA:1019,12
DA:1020,12
DA:1021,12
DA:1039,12
DA:1040,12
DA:1042,12
DA:1043,8
DA:1044,0
DA:1046,8
DA:1047,8
DA:1048,8
DA:1049,8
DA:1051,0
DA:1053,8
DA:1054,8
DA:1055,8
DA:1056,8
DA:1057,8
DA:1058,8
DA:1059,8
DA:1060,8
DA:1061,8
DA:1062,8
DA:1063,8
DA:1064,16
DA:1065,8
DA:1066,8
DA:1067,8
DA:1068,8
DA:1069,0
DA:1071,8
DA:1073,8
DA:1074,8
DA:1075,8
DA:1076,8
DA:1077,8
DA:1078,8
DA:1080,8
DA:1081,8
DA:1082,8
DA:1083,8
DA:1084,8
DA:1085,8
DA:1086,8
DA:1087,8
DA:1088,8
DA:1089,8
DA:1090,8
DA:1091,8
DA:1092,8
DA:1093,8
DA:1094,6
DA:1095,6
DA:1096,6
DA:1097,6
DA:1098,2
DA:1099,8
DA:1100,8
DA:1101,8
DA:1102,8
DA:1103,6
DA:1104,6
DA:1107,12
DA:1108,12
DA:1109,12
DA:1110,12
DA:1111,12
DA:1112,6
DA:1113,6
DA:1114,6
DA:1115,6
DA:1116,6
DA:1117,6
DA:1118,6
DA:1119,6
DA:1120,6
DA:1121,6
DA:1122,6
DA:1123,6
DA:1124,6
DA:1126,6
DA:1128,12
DA:1130,12
DA:1132,6
DA:1150,6
DA:1151,6
DA:1153,8
DA:1154,6
DA:1155,0
DA:1157,6
DA:1158,6
DA:1159,6
DA:1160,6
DA:1162,0
DA:1164,6
DA:1165,6
DA:1166,6
DA:1167,6
DA:1168,6
DA:1169,6
DA:1170,6
DA:1171,6
DA:1172,6
DA:1173,5
DA:1174,5
DA:1175,10
DA:1176,5
DA:1177,5
DA:1178,6
DA:1179,6
DA:1180,1
DA:1182,5
DA:1185,6
DA:1186,6
DA:1187,6
DA:1188,6
DA:1189,6
DA:1191,6
DA:1192,6
DA:1193,6
DA:1194,6
DA:1195,6
DA:1196,6
DA:1197,6
DA:1198,6
DA:1199,6
DA:1200,6
DA:1201,6
DA:1202,6
DA:1203,6
DA:1204,0
DA:1205,6
DA:1206,6
DA:1207,6
DA:1208,6
DA:1209,5
DA:1210,5
DA:1213,6
DA:1214,8
DA:1215,6
DA:1216,6
DA:1217,6
DA:1218,5
DA:1219,5
DA:1220,5
DA:1221,5
DA:1222,5
DA:1223,5
DA:1224,5
DA:1225,5
DA:1226,5
DA:1227,5
DA:1229,5
DA:1230,5
DA:1231,0
DA:1232,0
DA:1233,0
DA:1234,0
DA:1235,5
DA:1236,5
DA:1237,5
DA:1238,5
DA:1239,5
DA:1241,5
DA:1242,6
DA:1244,6
DA:1246,5
DA:1247,5
DA:1248,5
DA:1249,5
DA:1250,5
DA:1251,5
DA:1252,5
DA:1253,5
DA:1255,0
DA:1256,0
DA:1259,5
DA:1260,5
DA:1261,5
DA:1262,5
DA:1263,5
DA:1264,5
DA:1265,5
DA:1266,5
DA:1267,5
DA:1268,5
DA:1269,5
DA:1270,5
DA:1271,5
DA:1272,5
DA:1273,5
DA:1274,5
DA:1275,5
DA:1276,5
DA:1278,6
DA:1279,6
DA:1280,6
DA:1281,6
DA:1282,6
DA:1283,6
DA:1284,6
DA:1285,6
DA:1286,6
DA:1287,6
DA:1288,6
DA:1289,6
DA:1290,6
DA:1291,0
DA:1292,6
DA:1293,6
DA:1294,6
DA:1296,8
DA:1297,8
DA:1298,8
DA:1299,8
DA:1300,8
DA:1301,8
DA:1302,8
DA:1303,8
DA:1304,1
DA:1306,7
DA:1307,7
DA:1308,3
DA:1309,0
DA:1311,3
DA:1312,3
DA:1313,3
DA:1314,3
DA:1315,3
DA:1316,3
DA:1317,3
DA:1318,3
DA:1319,3
DA:1320,0
DA:1321,0
DA:1322,0
DA:1323,0
DA:1325,0
DA:1327,3
DA:1328,3
DA:1329,3
DA:1330,3
DA:1333,7
DA:1334,8
DA:1336,3
DA:1337,3
DA:1338,3
DA:1339,3
DA:1340,3
DA:1341,3
DA:1342,3
DA:1343,3
DA:1344,3
DA:1345,3
DA:1346,3
DA:1347,3
DA:1348,3
DA:1349,3
DA:1350,3
DA:1351,3
DA:1352,3
DA:1353,0
DA:1354,3
DA:1355,3
DA:1356,3
DA:1358,0
DA:1359,0
DA:1360,0
DA:1361,0
DA:1362,0
DA:1363,0
DA:1364,0
DA:1365,0
DA:1366,0
DA:1367,0
DA:1368,0
DA:1369,0
DA:1370,0
DA:1371,0
DA:1372,0
DA:1373,0
DA:1374,0
DA:1376,0
DA:1378,0
DA:1379,0
DA:1380,0
DA:1381,0
DA:1382,0
DA:1383,0
DA:1384,0
DA:1385,0
DA:1386,0
DA:1387,4
DA:1388,0
DA:1389,4
DA:1390,4
DA:1391,4
DA:1392,7
DA:1394,4
DA:1395,7
DA:1396,0
DA:1397,4
DA:1398,4
DA:1399,4
DA:1400,0
DA:1402,4
DA:1403,4
DA:1404,2
DA:1406,2
DA:1409,4
DA:1410,4
DA:1411,4
DA:1412,4
DA:1413,4
DA:1414,4
DA:1415,4
DA:1416,4
DA:1417,4
DA:1419,4
DA:1420,4
DA:1421,4
DA:1422,4
DA:1423,4
DA:1424,4
DA:1425,4
DA:1426,4
DA:1427,4
DA:1428,4
DA:1429,4
DA:1430,4
DA:1431,4
DA:1433,4
DA:1434,6
DA:1435,6
DA:1436,6
DA:1437,4
DA:1439,10
DA:1440,10
DA:1441,10
DA:1442,0
DA:1443,0
DA:1444,0
DA:1445,0
DA:1446,0
DA:1447,0
DA:1448,0
DA:1449,0
DA:1450,0
DA:1453,10
DA:1454,3
DA:1456,3
DA:1457,3
DA:1458,3
DA:1459,3
DA:1460,3
DA:1461,3
DA:1462,3
DA:1463,3
DA:1465,3
DA:1466,3
DA:1467,3
DA:1468,3
DA:1469,3
DA:1470,3
DA:1472,3
DA:1473,3
DA:1474,3
DA:1475,7
DA:1476,3
DA:1477,4
DA:1480,6
DA:1481,6
DA:1482,6
DA:1483,6
DA:1484,6
DA:1485,1
DA:1486,1
DA:1487,5
DA:1488,1
DA:1489,4
DA:1492,4
DA:1493,4
DA:1495,4
DA:1496,4
DA:1497,3
DA:1499,1
DA:1500,1
DA:1501,1
DA:1503,4
DA:1505,0
DA:1506,1
DA:1507,0
DA:1508,0
DA:1509,1
DA:1511,0
DA:1512,1
DA:1513,0
DA:1514,0
DA:1515,1
DA:1517,0
DA:1518,0
DA:1519,0
DA:1520,0
DA:1521,0
DA:1522,0
DA:1523,0
DA:1524,0
DA:1525,0
DA:1526,0
DA:1527,0
DA:1529,0
DA:1530,0
DA:1531,0
DA:1532,0
DA:1533,0
DA:1534,0
DA:1535,0
DA:1536,0
DA:1537,0
DA:1539,0
DA:1541,0
DA:1542,0
DA:1543,0
DA:1544,0
DA:1545,0
DA:1546,0
DA:1547,0
DA:1548,0
DA:1549,0
DA:1550,0
DA:1551,0
DA:1552,0
DA:1553,0
DA:1554,0
DA:1555,0
DA:1556,0
DA:1557,0
DA:1558,0
DA:1559,0
DA:1560,0
DA:1562,0
DA:1563,0
DA:1565,0
DA:1566,1
DA:1567,0
DA:1568,0
DA:1569,0
DA:1570,0
DA:1571,0
DA:1572,0
DA:1573,0
DA:1574,0
DA:1575,0
DA:1576,0
DA:1577,0
DA:1579,0
DA:1580,0
DA:1581,1
DA:1583,0
DA:1584,0
DA:1585,0
DA:1586,0
DA:1587,0
DA:1588,0
DA:1589,0
DA:1590,0
DA:1591,1
DA:1592,1
DA:1593,1
DA:1595,1
DA:1596,0
DA:1597,0
DA:1598,0
DA:1601,1
DA:1602,1
DA:1604,0
DA:1605,0
DA:1607,0
DA:1608,0
DA:1610,1
DA:1621,1
DA:1622,1
DA:1623,1
DA:1624,1
DA:1626,1
DA:1627,1
DA:1628,1
DA:1630,1
DA:1633,1
DA:1634,1
DA:1635,1
DA:1636,1
DA:1637,1
DA:1639,1
DA:1642,1
DA:1643,1
DA:1644,1
DA:1645,1
DA:1646,1
DA:1648,1
DA:1651,1
DA:1652,1
DA:1653,1
DA:1654,1
DA:1655,1
DA:1656,1
DA:1657,1
DA:1658,1
DA:1659,1
DA:1660,1
DA:1661,1
DA:1662,1
DA:1663,1
DA:1664,1
DA:1666,1
DA:1667,1
DA:1668,1
DA:1669,1
DA:1670,1
DA:1671,1
DA:1672,1
DA:1673,1
DA:1674,1
DA:1675,1
DA:1676,1
DA:1677,1
DA:1678,1
DA:1680,1
DA:1682,1
DA:1683,1
DA:1684,1
DA:1688,1
DA:1689,1
DA:1690,1
DA:1691,1
DA:1692,1
DA:1693,1
DA:1694,1
DA:1695,1
DA:1696,1
DA:1697,1
DA:1698,1
DA:1699,1
DA:1700,1
DA:1702,1
DA:1703,1
DA:1704,1
DA:1705,1
DA:1706,1
DA:1707,1
DA:1709,1
DA:1710,1
DA:1711,1
DA:1712,1
DA:1713,1
DA:1714,1
DA:1715,1
DA:1716,1
DA:1717,1
DA:1718,1
DA:1719,1
DA:1720,1
DA:1721,1
DA:1722,1
DA:1723,1
DA:1725,1
DA:1726,1
DA:1729,1
DA:1732,1
DA:1733,1
DA:1734,1
DA:1735,1
DA:1736,1
DA:1737,1
DA:1738,1
DA:1739,1
DA:1740,1
DA:1742,1
DA:1744,1
DA:1745,1
DA:1746,1
DA:1747,1
DA:1748,1
DA:1749,1
DA:1750,1
DA:1751,1
DA:1754,1
DA:1757,1
DA:1758,1
DA:1759,1
DA:1760,1
DA:1761,1
DA:1762,1
DA:1763,1
DA:1764,1
DA:1765,1
DA:1766,1
DA:1767,1
DA:1768,1
DA:1769,1
DA:1770,1
DA:1772,1
DA:1773,1
DA:1774,1
DA:1775,1
DA:1776,1
DA:1777,1
DA:1778,1
DA:1779,1
DA:1780,1
DA:1781,1
DA:1783,1
DA:1784,1
DA:1785,1
DA:1786,1
DA:1787,1
DA:1790,1
DA:1791,1
DA:1792,1
DA:1793,1
DA:1794,1
DA:1795,1
DA:1796,1
DA:1797,1
DA:1798,1
DA:1799,1
DA:1800,1
DA:1801,1
DA:1802,1
DA:1803,1
DA:1804,1
DA:1805,1
DA:1806,1
DA:1807,1
DA:1808,1
DA:1809,1
DA:1810,1
DA:1811,1
DA:1812,1
DA:1814,1
DA:1817,1
DA:1818,1
DA:1819,1
DA:1820,1
DA:1821,1
DA:1822,1
DA:1823,1
DA:1824,1
DA:1825,1
DA:1826,1
DA:1827,1
DA:1828,1
DA:1831,1
DA:1832,1
DA:1833,1
DA:1834,1
DA:1835,1
DA:1836,1
DA:1837,1
DA:1838,1
DA:1839,1
DA:1840,1
DA:1844,1
DA:1845,1
DA:1846,1
DA:1847,1
DA:1848,1
DA:1849,1
DA:1850,1
DA:1851,1
DA:1852,1
DA:1853,1
DA:1855,1
DA:1861,1
DA:1862,1
DA:1863,1
DA:1864,1
DA:1865,1
DA:1866,1
DA:1867,1
DA:1874,1
DA:1875,1
DA:1876,1
DA:1879,1
DA:1880,1
DA:1881,1
DA:1884,1
DA:1886,1
DA:1887,1
DA:1888,1
DA:1889,1
DA:1890,1
DA:1891,1
DA:1892,1
DA:1893,1
DA:1894,1
DA:1895,1
DA:1896,1
DA:1897,1
DA:1898,1
DA:1899,1
DA:1901,1
DA:1902,1
DA:1903,1
DA:1905,1
DA:1906,1
DA:1907,1
DA:1909,1
DA:1910,1
DA:1911,1
DA:1912,1
DA:1913,1
DA:1915,1
DA:1916,1
DA:1917,1
DA:1918,1
DA:1919,3
DA:1920,1
DA:1922,1
DA:1923,1
DA:1924,1
DA:1925,1
DA:1926,1
DA:1927,1
DA:1928,1
DA:1929,1
DA:1930,1
DA:1931,1
DA:1932,1
DA:1933,1
DA:1934,1
DA:1935,1
DA:1936,1
DA:1937,1
DA:1939,1
DA:1940,1
DA:1941,3
DA:1942,1
DA:1943,1
DA:1944,1
DA:1945,1
DA:1946,1
DA:1947,1
DA:1948,1
DA:1949,1
DA:1950,1
DA:1951,1
DA:1952,1
DA:1953,1
DA:1954,1
DA:1955,1
DA:1956,1
DA:1959,1
DA:1960,1
DA:1961,1
DA:1962,1
DA:1963,1
DA:1964,1
DA:1972,1
DA:1973,1
DA:1974,1
DA:1977,1
DA:1978,1
DA:1979,1
DA:1982,1
DA:1983,1
DA:1984,1
DA:1987,1
DA:1989,1
DA:1990,1
DA:1991,1
DA:1992,1
DA:1993,1
DA:1994,1
DA:1995,1
DA:1996,1
DA:1997,1
DA:1998,1
DA:1999,1
DA:2000,1
DA:2001,1
DA:2002,1
DA:2004,1
DA:2005,1
DA:2006,1
DA:2008,1
DA:2009,1
DA:2010,1
DA:2011,1
DA:2012,1
DA:2015,1
DA:2016,1
DA:2017,1
DA:2018,1
DA:2019,1
DA:2021,1
DA:2022,1
DA:2023,1
DA:2024,1
DA:2025,3
DA:2026,1
DA:2028,1
DA:2029,1
DA:2030,2
DA:2031,1
DA:2032,1
DA:2033,1
DA:2034,1
DA:2035,1
DA:2036,1
DA:2037,1
DA:2038,1
DA:2040,1
DA:2043,1
DA:2044,1
DA:2045,1
DA:2046,1
DA:2047,1
DA:2048,1
DA:2049,1
DA:2050,1
DA:2053,1
DA:2056,1
DA:2057,1
DA:2058,1
DA:2059,1
DA:2060,1
DA:2061,1
DA:2062,1
DA:2063,1
DA:2064,1
DA:2065,1
DA:2066,1
DA:2067,1
DA:2068,1
DA:2069,1
DA:2070,1
DA:2071,1
DA:2072,1
DA:2073,1
DA:2074,1
DA:2075,1
DA:2076,1
DA:2077,1
DA:2078,1
DA:2079,1
DA:2080,1
DA:2081,1
DA:2083,1
DA:2084,1
DA:2085,1
DA:2086,1
DA:2088,1
DA:2089,1
DA:2090,1
DA:2091,1
DA:2092,1
DA:2094,1
DA:2095,1
DA:2096,1
DA:2097,1
DA:2098,1
DA:2099,1
DA:2100,1
DA:2102,1
DA:2103,1
DA:2104,1
DA:2105,1
DA:2106,1
DA:2107,1
DA:2108,1
DA:2110,1
DA:2111,1
DA:2112,1
DA:2113,1
DA:2114,1
DA:2116,1
DA:2117,1
DA:2120,1
DA:2121,1
DA:2122,1
DA:2123,1
DA:2124,1
DA:2127,1
DA:2128,1
DA:2129,1
DA:2130,1
DA:2131,1
DA:2132,1
DA:2133,1
DA:2134,1
DA:2135,1
DA:2136,1
DA:2137,1
DA:2138,1
DA:2139,1
DA:2140,1
DA:2142,1
DA:2143,1
DA:2144,1
DA:2145,1
DA:2147,1
DA:2148,1
DA:2149,1
DA:2151,1
DA:2152,1
DA:2153,1
DA:2154,1
DA:2155,1
DA:2156,1
DA:2157,1
DA:2158,1
DA:2159,1
DA:2162,1
DA:2163,1
DA:2164,1
DA:2165,1
DA:2166,1
DA:2167,1
DA:2168,1
DA:2169,1
DA:2170,1
DA:2171,1
DA:2172,1
DA:2173,1
DA:2174,1
DA:2175,1
DA:2176,1
DA:2177,1
DA:2178,1
DA:2179,1
DA:2180,1
DA:2181,1
DA:2182,1
DA:2183,1
DA:2184,1
DA:2185,1
DA:2186,1
DA:2187,1
DA:2189,1
DA:2190,1
DA:2191,1
DA:2192,1
DA:2193,1
DA:2194,1
DA:2195,1
DA:2196,1
DA:2197,1
DA:2198,1
DA:2199,1
DA:2200,1
DA:2201,1
DA:2202,1
DA:2203,1
DA:2204,1
DA:2205,1
DA:2206,1
DA:2207,1
DA:2208,1
DA:2209,1
DA:2210,1
DA:2211,1
DA:2212,1
DA:2213,1
DA:2215,1
DA:2216,1
DA:2217,1
DA:2218,1
DA:2219,1
DA:2220,1
DA:2221,1
DA:2222,1
DA:2223,1
DA:2224,1
DA:2226,1
DA:2227,1
DA:2228,1
DA:2229,1
DA:2230,1
DA:2231,1
DA:2232,1
DA:2234,1
DA:2235,1
DA:2236,1
DA:2237,1
DA:2238,1
DA:2240,1
DA:2241,1
DA:2242,1
DA:2243,1
DA:2244,1
DA:2247,1
DA:2248,1
DA:2249,1
DA:2250,1
DA:2251,1
DA:2252,1
DA:2254,1
DA:2255,1
DA:2258,1
DA:2259,1
DA:2262,1
DA:2264,1
DA:2265,1
DA:2266,1
DA:2267,1
DA:2271,1
DA:2272,1
DA:2273,1
DA:2278,1
DA:2279,1
DA:2280,1
DA:2281,1
DA:2282,1
DA:2283,1
DA:2284,1
DA:2285,1
DA:2288,1
DA:2291,1
DA:2292,1
DA:2293,1
DA:2294,1
DA:2295,1
DA:2296,1
DA:2297,1
DA:2298,1
DA:2299,1
DA:2300,1
DA:2301,1
DA:2302,1
DA:2303,1
DA:2304,1
DA:2306,1
DA:2307,1
DA:2308,1
DA:2309,1
DA:2310,1
DA:2311,1
DA:2312,1
DA:2313,1
DA:2314,1
DA:2315,1
DA:2316,1
DA:2317,1
DA:2319,1
DA:2320,1
DA:2321,1
DA:2322,1
DA:2323,1
DA:2324,1
DA:2326,1
DA:2327,1
DA:2328,1
DA:2329,1
DA:2330,1
DA:2332,1
DA:2333,1
DA:2334,1
DA:2335,1
DA:2338,1
DA:2339,1
DA:2340,1
DA:2341,1
DA:2342,1
DA:2343,1
DA:2344,1
DA:2345,1
DA:2346,1
DA:2347,1
DA:2348,1
DA:2349,1
DA:2350,1
DA:2351,1
DA:2353,1
DA:2354,1
DA:2355,1
DA:2356,1
DA:2357,1
DA:2358,1
DA:2359,1
DA:2360,1
DA:2361,1
DA:2362,1
DA:2363,1
DA:2364,1
DA:2365,1
DA:2366,1
DA:2367,1
DA:2368,1
DA:2369,1
DA:2370,1
DA:2371,1
DA:2372,1
DA:2374,1
DA:2375,1
DA:2376,1
DA:2377,1
DA:2378,1
DA:2379,1
DA:2381,1
DA:2382,1
DA:2383,1
DA:2384,1
DA:2385,1
DA:2388,1
DA:2389,1
DA:2390,1
DA:2391,1
DA:2392,1
DA:2393,1
DA:2394,1
DA:2395,1
DA:2396,1
DA:2397,1
DA:2398,1
DA:2399,1
DA:2400,1
DA:2401,1
DA:2402,1
DA:2403,1
DA:2404,1
DA:2405,1
DA:2406,1
DA:2407,1
DA:2408,1
DA:2409,1
DA:2410,1
DA:2411,1
DA:2412,1
DA:2413,1
DA:2414,1
DA:2415,1
DA:2416,1
DA:2417,1
DA:2418,1
DA:2419,1
DA:2420,1
DA:2421,1
DA:2422,1
DA:2423,1
DA:2424,1
DA:2425,1
DA:2426,1
DA:2427,1
DA:2428,1
DA:2429,1
DA:2430,1
DA:2431,1
DA:2432,1
DA:2434,1
DA:2435,1
DA:2438,1
DA:2439,1
DA:2441,1
DA:2442,1
DA:2443,1
DA:2444,1
DA:2445,1
DA:2446,1
DA:2447,1
DA:2448,1
DA:2451,1
DA:2452,1
DA:2453,1
DA:2454,1
DA:2455,1
DA:2456,1
DA:2458,1
DA:2459,1
DA:2460,1
DA:2461,1
DA:2462,1
DA:2463,1
DA:2464,1
DA:2465,1
DA:2466,1
DA:2470,1
DA:2471,1
DA:2472,1
DA:2473,1
DA:2474,1
DA:2475,1
DA:2480,1
DA:2481,1
DA:2482,1
DA:2483,1
DA:2486,1
DA:2487,1
DA:2488,1
DA:2489,1
DA:2492,1
DA:2493,1
DA:2494,1
DA:2495,1
DA:2498,1
DA:2499,1
DA:2500,1
DA:2501,1
DA:2502,1
DA:2503,1
DA:2506,1
DA:2507,1
DA:2508,1
DA:2509,1
DA:2510,1
DA:2511,1
DA:2516,1
DA:2517,1
DA:2518,1
DA:2519,1
DA:2524,1
DA:2525,1
DA:2526,1
DA:2527,1
DA:2528,1
DA:2529,1
DA:2530,1
DA:2532,1
DA:2533,1
DA:2534,1
DA:2535,1
DA:2536,1
DA:2537,1
DA:2540,1
DA:2541,1
DA:2542,1
DA:2543,1
DA:2544,1
DA:2545,1
DA:2546,1
DA:2547,1
DA:2548,1
DA:2549,1
DA:2550,1
DA:2551,1
DA:2552,1
DA:2553,1
DA:2554,1
DA:2555,1
DA:2559,1
DA:2560,1
DA:2561,1
DA:2562,1
DA:2563,1
DA:2564,1
DA:2565,1
DA:2568,1
DA:2569,1
DA:2570,1
DA:2571,1
DA:2572,1
DA:2573,1
DA:2574,1
DA:2575,1
DA:2576,1
DA:2577,1
DA:2578,1
DA:2579,1
DA:2580,1
DA:2583,1
DA:2584,1
DA:2585,1
DA:2586,1
DA:2587,1
DA:2588,1
DA:2589,1
DA:2594,1
DA:2595,1
DA:2596,1
DA:2597,1
DA:2599,1
DA:2600,1
DA:2601,1
DA:2602,1
DA:2603,1
DA:2604,1
DA:2607,1
DA:2608,1
DA:2609,1
DA:2610,1
DA:2611,1
DA:2612,1
DA:2617,1
DA:2618,1
DA:2619,1
DA:2620,1
DA:2621,1
DA:2622,1
DA:2623,1
DA:2624,1
DA:2625,1
DA:2626,1
DA:2629,1
DA:2630,1
DA:2631,1
DA:2632,1
DA:2634,1
DA:2635,1
DA:2636,1
DA:2639,1
DA:2640,1
DA:2641,1
DA:2642,1
DA:2643,1
DA:2644,1
DA:2645,1
DA:2647,1
DA:2648,1
DA:2649,1
DA:2650,1
DA:2651,1
DA:2652,1
DA:2657,1
DA:2658,1
DA:2659,1
DA:2660,1
DA:2661,1
DA:2662,1
DA:2663,1
DA:2664,1
DA:2665,1
DA:2670,1
DA:2671,1
DA:2672,1
DA:2673,1
DA:2674,1
DA:2675,1
DA:2676,1
DA:2677,1
DA:2678,1
DA:2681,1
DA:2682,1
DA:2683,1
DA:2684,1
DA:2685,1
DA:2686,1
DA:2687,1
DA:2690,1
DA:2691,1
DA:2692,1
DA:2693,1
DA:2694,1
DA:2695,1
DA:2696,1
DA:2700,1
DA:2701,1
DA:2702,1
DA:2703,2
DA:2704,1
DA:2705,1
DA:2708,1
DA:2709,1
DA:2710,1
DA:2711,1
DA:2712,1
DA:2719,1
DA:2721,1
DA:2722,1
DA:2728,1
DA:2729,1
DA:2730,1
DA:2733,1
DA:2734,1
DA:2735,1
DA:2736,1
DA:2737,1
DA:2738,1
DA:2741,1
DA:2742,1
DA:2743,1
DA:2744,1
DA:2747,1
DA:2748,1
DA:2749,1
DA:2750,1
DA:2751,1
DA:2752,1
DA:2753,1
DA:2756,1
DA:2757,1
DA:2759,1
DA:2760,1
DA:2761,1
DA:2763,1
DA:2764,1
DA:2765,1
DA:2766,1
DA:2767,1
DA:2768,1
DA:2771,1
DA:2772,1
DA:2773,1
DA:2774,1
DA:2775,1
DA:2777,1
DA:2778,1
DA:2779,1
DA:2784,1
DA:2785,1
DA:2786,1
DA:2787,1
DA:2788,1
DA:2789,1
DA:2791,1
DA:2792,1
DA:2794,1
DA:2795,1
DA:2796,1
DA:2797,1
DA:2798,1
DA:2799,1
DA:2800,1
DA:2802,1
DA:2803,1
DA:2804,1
DA:2805,1
DA:2806,1
DA:2807,1
DA:2808,1
DA:2809,1
DA:2811,1
DA:2812,1
DA:2813,1
DA:2814,1
DA:2815,1
DA:2816,1
DA:2818,1
DA:2819,1
DA:2820,1
DA:2823,1
DA:2824,1
DA:2825,1
DA:2826,1
DA:2828,1
DA:2829,1
DA:2830,1
DA:2832,1
DA:2833,1
DA:2834,1
DA:2837,1
DA:2838,1
DA:2839,1
DA:2840,1
DA:2841,1
DA:2842,1
DA:2844,1
DA:2845,1
DA:2846,1
DA:2847,1
DA:2848,1
DA:2849,1
DA:2850,1
DA:2851,1
DA:2853,1
DA:2854,1
DA:2855,1
DA:2856,1
DA:2857,1
DA:2858,1
DA:2859,1
DA:2862,1
DA:2863,1
DA:2864,1
DA:2865,1
DA:2868,1
DA:2869,1
DA:2870,1
DA:2872,1
DA:2873,1
DA:2874,1
DA:2876,1
DA:2877,1
DA:2878,1
DA:2879,1
DA:2882,1
DA:2883,1
DA:2884,1
DA:2885,1
DA:2886,1
DA:2887,1
DA:2889,1
DA:2895,1
DA:2896,1
DA:2897,1
DA:2898,1
DA:2899,1
DA:2901,1
DA:2902,1
DA:2903,1
DA:2905,1
DA:2906,1
DA:2907,1
DA:2908,1
DA:2909,1
DA:2911,1
DA:2913,1
DA:2914,1
DA:2915,1
DA:2916,1
DA:2918,1
DA:2921,1
DA:2922,1
DA:2923,1
DA:2924,1
DA:2925,1
DA:2927,1
DA:2928,1
DA:2929,1
DA:2931,1
DA:2932,1
DA:2933,1
DA:2934,1
DA:2935,1
DA:2936,1
DA:2937,1
DA:2939,1
DA:2940,1
DA:2941,1
DA:2942,1
DA:2945,1
DA:2946,1
DA:2947,1
DA:2949,1
DA:2951,1
DA:2952,1
DA:2955,1
DA:2956,1
DA:2957,1
DA:2958,1
DA:2959,1
DA:2962,1
DA:2963,1
DA:2964,1
DA:2965,1
DA:2966,1
DA:2969,1
DA:2970,1
DA:2971,1
DA:2972,1
DA:2973,1
DA:2974,1
DA:2976,1
DA:2979,1
DA:2980,1
DA:2981,1
DA:2983,1
DA:2984,1
DA:2989,1
DA:2991,1
DA:2992,1
DA:2993,1
DA:2995,1
DA:2996,1
DA:2997,1
DA:2999,1
DA:3000,1
DA:3001,1
DA:3002,1
DA:3005,1
DA:3006,1
DA:3007,1
DA:3008,1
DA:3009,1
DA:3010,1
DA:3013,1
DA:3015,1
DA:3017,1
DA:3018,1
DA:3021,1
DA:3022,1
DA:3023,1
DA:3024,1
DA:3027,1
DA:3028,1
DA:3029,1
DA:3032,1
DA:3033,1
DA:3034,1
DA:3035,1
DA:3038,1
DA:3040,1
DA:3041,1
DA:3042,1
DA:3043,1
DA:3045,1
DA:3048,1
DA:3049,1
DA:3051,1
DA:3052,1
DA:3055,2
DA:3056,2
DA:3057,2
DA:3058,2
DA:3059,2
DA:3060,2
DA:3061,2
BRF:0
BRH:0
LF:2497
LH:2169
end_of_record
SF:/home/g4/_prj/weaveback/crates/weaveback-api/src/lint.rs
FN:144,_RNCNCNvNtCsaY2CvWUtqiY_13weaveback_api4lint22lint_syntaxes_for_file00B7_
FN:270,_RNCNvNtCsaY2CvWUtqiY_13weaveback_api4lint10lint_paths0B5_
FN:281,_RNCNvNtCsaY2CvWUtqiY_13weaveback_api4lint10lint_pathss0_0B5_
FN:273,_RNCNvNtCsaY2CvWUtqiY_13weaveback_api4lint10lint_pathss_0B5_
FN:43,_RNCNvNtCsaY2CvWUtqiY_13weaveback_api4lint15should_skip_dir0B5_
FN:54,_RNCNvNtCsaY2CvWUtqiY_13weaveback_api4lint18collect_adoc_files0B5_
FN:70,_RNCNvNtCsaY2CvWUtqiY_13weaveback_api4lint18collect_adoc_filess_0B5_
FN:144,_RNCNvNtCsaY2CvWUtqiY_13weaveback_api4lint22lint_syntaxes_for_file0B5_
FN:152,_RNCNvNtCsaY2CvWUtqiY_13weaveback_api4lint22lint_syntaxes_for_files0_0B5_
FN:116,_RNCNvNtCsaY2CvWUtqiY_13weaveback_api4lint23load_lint_syntaxes_from0B5_
FN:118,_RNCNvNtCsaY2CvWUtqiY_13weaveback_api4lint23load_lint_syntaxes_froms0_0B5_
FN:124,_RNCNvNtCsaY2CvWUtqiY_13weaveback_api4lint23load_lint_syntaxes_froms1_0B5_
FN:125,_RNCNvNtCsaY2CvWUtqiY_13weaveback_api4lint23load_lint_syntaxes_froms2_0B5_
FN:117,_RNCNvNtCsaY2CvWUtqiY_13weaveback_api4lint23load_lint_syntaxes_froms_0B5_
FN:191,_RNCNvNtCsaY2CvWUtqiY_13weaveback_api4lint29lint_chunk_body_outside_fence0B5_
FN:12,_RNvMNtCsaY2CvWUtqiY_13weaveback_api4lintNtB2_8LintRule2id
FN:263,_RNvNtCsaY2CvWUtqiY_13weaveback_api4lint10lint_paths
FN:42,_RNvNtCsaY2CvWUtqiY_13weaveback_api4lint15should_skip_dir
FN:52,_RNvNtCsaY2CvWUtqiY_13weaveback_api4lint18collect_adoc_files
FN:136,_RNvNtCsaY2CvWUtqiY_13weaveback_api4lint18load_lint_syntaxes
FN:140,_RNvNtCsaY2CvWUtqiY_13weaveback_api4lint22lint_syntaxes_for_file
FN:168,_RNvNtCsaY2CvWUtqiY_13weaveback_api4lint22parse_chunk_definition
FN:97,_RNvNtCsaY2CvWUtqiY_13weaveback_api4lint23load_lint_syntaxes_from
FN:159,_RNvNtCsaY2CvWUtqiY_13weaveback_api4lint27parse_chunk_definition_name
FN:177,_RNvNtCsaY2CvWUtqiY_13weaveback_api4lint29lint_chunk_body_outside_fence
FN:210,_RNvNtCsaY2CvWUtqiY_13weaveback_api4lint34lint_unterminated_chunk_definition
FN:292,_RNvNtCsaY2CvWUtqiY_13weaveback_api4lint8run_lint
FN:23,_RNvXs_NtCsaY2CvWUtqiY_13weaveback_api4lintNtB4_8LintRuleNtNtNtCs9yMf5VoQcqS_4core3str6traits7FromStr8from_str
FN:508,_RNvNtNtCs9svORWNbXMv_13weaveback_api4lint5testss_22run_lint_can_emit_json
FN:362,_RNvNtNtCs9svORWNbXMv_13weaveback_api4lint5testss_31lint_accepts_chunk_inside_fence
FN:346,_RNvNtNtCs9svORWNbXMv_13weaveback_api4lint5testss_32lint_detects_chunk_outside_fence
FN:458,_RNvNtNtCs9svORWNbXMv_13weaveback_api4lint5testss_35lint_uses_matching_pass_syntax_only
FN:483,_RNvNtNtCs9svORWNbXMv_13weaveback_api4lint5testss_39collect_adoc_files_skips_generated_dirs
FN:392,_RNvNtNtCs9svORWNbXMv_13weaveback_api4lint5testss_44lint_detects_new_chunk_before_previous_close
FN:423,_RNvNtNtCs9svORWNbXMv_13weaveback_api4lint5testss_44lint_detects_uncommented_triple_angle_chunks
FN:375,_RNvNtNtCs9svORWNbXMv_13weaveback_api4lint5testss_46lint_detects_unterminated_chunk_at_end_of_file
FN:408,_RNvNtNtCs9svORWNbXMv_13weaveback_api4lint5testss_47lint_detects_hash_prefixed_angle_bracket_chunks
FN:433,_RNvNtNtCs9svORWNbXMv_13weaveback_api4lint5testss_48load_lint_syntaxes_reads_pass_syntax_from_config
FN:497,_RNvNtNtCs9svORWNbXMv_13weaveback_api4lint5testss_55run_lint_is_warning_by_default_and_error_in_strict_mode
FN:12,_RNvMNtCs9svORWNbXMv_13weaveback_api4lintNtB2_8LintRule2id
FN:263,_RNvNtCs9svORWNbXMv_13weaveback_api4lint10lint_paths
FN:42,_RNvNtCs9svORWNbXMv_13weaveback_api4lint15should_skip_dir
FN:52,_RNvNtCs9svORWNbXMv_13weaveback_api4lint18collect_adoc_files
FN:136,_RNvNtCs9svORWNbXMv_13weaveback_api4lint18load_lint_syntaxes
FN:140,_RNvNtCs9svORWNbXMv_13weaveback_api4lint22lint_syntaxes_for_file
FN:168,_RNvNtCs9svORWNbXMv_13weaveback_api4lint22parse_chunk_definition
FN:97,_RNvNtCs9svORWNbXMv_13weaveback_api4lint23load_lint_syntaxes_from
FN:159,_RNvNtCs9svORWNbXMv_13weaveback_api4lint27parse_chunk_definition_name
FN:177,_RNvNtCs9svORWNbXMv_13weaveback_api4lint29lint_chunk_body_outside_fence
FN:210,_RNvNtCs9svORWNbXMv_13weaveback_api4lint34lint_unterminated_chunk_definition
FN:292,_RNvNtCs9svORWNbXMv_13weaveback_api4lint8run_lint
FN:23,_RNvXs_NtCs9svORWNbXMv_13weaveback_api4lintNtB4_8LintRuleNtNtNtCs9yMf5VoQcqS_4core3str6traits7FromStr8from_str
FN:144,_RNCNCNvNtCs9svORWNbXMv_13weaveback_api4lint22lint_syntaxes_for_file00B7_
FN:270,_RNCNvNtCs9svORWNbXMv_13weaveback_api4lint10lint_paths0B5_
FN:281,_RNCNvNtCs9svORWNbXMv_13weaveback_api4lint10lint_pathss0_0B5_
FN:273,_RNCNvNtCs9svORWNbXMv_13weaveback_api4lint10lint_pathss_0B5_
FN:43,_RNCNvNtCs9svORWNbXMv_13weaveback_api4lint15should_skip_dir0B5_
FN:54,_RNCNvNtCs9svORWNbXMv_13weaveback_api4lint18collect_adoc_files0B5_
FN:70,_RNCNvNtCs9svORWNbXMv_13weaveback_api4lint18collect_adoc_filess_0B5_
FN:144,_RNCNvNtCs9svORWNbXMv_13weaveback_api4lint22lint_syntaxes_for_file0B5_
FN:152,_RNCNvNtCs9svORWNbXMv_13weaveback_api4lint22lint_syntaxes_for_files0_0B5_
FN:116,_RNCNvNtCs9svORWNbXMv_13weaveback_api4lint23load_lint_syntaxes_from0B5_
FN:118,_RNCNvNtCs9svORWNbXMv_13weaveback_api4lint23load_lint_syntaxes_froms0_0B5_
FN:124,_RNCNvNtCs9svORWNbXMv_13weaveback_api4lint23load_lint_syntaxes_froms1_0B5_
FN:125,_RNCNvNtCs9svORWNbXMv_13weaveback_api4lint23load_lint_syntaxes_froms2_0B5_
FN:117,_RNCNvNtCs9svORWNbXMv_13weaveback_api4lint23load_lint_syntaxes_froms_0B5_
FN:191,_RNCNvNtCs9svORWNbXMv_13weaveback_api4lint29lint_chunk_body_outside_fence0B5_
FNDA:0,_RNCNCNvNtCsaY2CvWUtqiY_13weaveback_api4lint22lint_syntaxes_for_file00B7_
FNDA:0,_RNCNvNtCsaY2CvWUtqiY_13weaveback_api4lint10lint_paths0B5_
FNDA:0,_RNCNvNtCsaY2CvWUtqiY_13weaveback_api4lint10lint_pathss0_0B5_
FNDA:0,_RNCNvNtCsaY2CvWUtqiY_13weaveback_api4lint10lint_pathss_0B5_
FNDA:0,_RNCNvNtCsaY2CvWUtqiY_13weaveback_api4lint15should_skip_dir0B5_
FNDA:0,_RNCNvNtCsaY2CvWUtqiY_13weaveback_api4lint18collect_adoc_files0B5_
FNDA:0,_RNCNvNtCsaY2CvWUtqiY_13weaveback_api4lint18collect_adoc_filess_0B5_
FNDA:0,_RNCNvNtCsaY2CvWUtqiY_13weaveback_api4lint22lint_syntaxes_for_file0B5_
FNDA:0,_RNCNvNtCsaY2CvWUtqiY_13weaveback_api4lint22lint_syntaxes_for_files0_0B5_
FNDA:0,_RNCNvNtCsaY2CvWUtqiY_13weaveback_api4lint23load_lint_syntaxes_from0B5_
FNDA:0,_RNCNvNtCsaY2CvWUtqiY_13weaveback_api4lint23load_lint_syntaxes_froms0_0B5_
FNDA:0,_RNCNvNtCsaY2CvWUtqiY_13weaveback_api4lint23load_lint_syntaxes_froms1_0B5_
FNDA:0,_RNCNvNtCsaY2CvWUtqiY_13weaveback_api4lint23load_lint_syntaxes_froms2_0B5_
FNDA:0,_RNCNvNtCsaY2CvWUtqiY_13weaveback_api4lint23load_lint_syntaxes_froms_0B5_
FNDA:0,_RNCNvNtCsaY2CvWUtqiY_13weaveback_api4lint29lint_chunk_body_outside_fence0B5_
FNDA:0,_RNvMNtCsaY2CvWUtqiY_13weaveback_api4lintNtB2_8LintRule2id
FNDA:0,_RNvNtCsaY2CvWUtqiY_13weaveback_api4lint10lint_paths
FNDA:0,_RNvNtCsaY2CvWUtqiY_13weaveback_api4lint15should_skip_dir
FNDA:0,_RNvNtCsaY2CvWUtqiY_13weaveback_api4lint18collect_adoc_files
FNDA:0,_RNvNtCsaY2CvWUtqiY_13weaveback_api4lint18load_lint_syntaxes
FNDA:0,_RNvNtCsaY2CvWUtqiY_13weaveback_api4lint22lint_syntaxes_for_file
FNDA:0,_RNvNtCsaY2CvWUtqiY_13weaveback_api4lint22parse_chunk_definition
FNDA:0,_RNvNtCsaY2CvWUtqiY_13weaveback_api4lint23load_lint_syntaxes_from
FNDA:0,_RNvNtCsaY2CvWUtqiY_13weaveback_api4lint27parse_chunk_definition_name
FNDA:0,_RNvNtCsaY2CvWUtqiY_13weaveback_api4lint29lint_chunk_body_outside_fence
FNDA:0,_RNvNtCsaY2CvWUtqiY_13weaveback_api4lint34lint_unterminated_chunk_definition
FNDA:0,_RNvNtCsaY2CvWUtqiY_13weaveback_api4lint8run_lint
FNDA:0,_RNvXs_NtCsaY2CvWUtqiY_13weaveback_api4lintNtB4_8LintRuleNtNtNtCs9yMf5VoQcqS_4core3str6traits7FromStr8from_str
FNDA:1,_RNvNtNtCs9svORWNbXMv_13weaveback_api4lint5testss_22run_lint_can_emit_json
FNDA:1,_RNvNtNtCs9svORWNbXMv_13weaveback_api4lint5testss_31lint_accepts_chunk_inside_fence
FNDA:1,_RNvNtNtCs9svORWNbXMv_13weaveback_api4lint5testss_32lint_detects_chunk_outside_fence
FNDA:1,_RNvNtNtCs9svORWNbXMv_13weaveback_api4lint5testss_35lint_uses_matching_pass_syntax_only
FNDA:1,_RNvNtNtCs9svORWNbXMv_13weaveback_api4lint5testss_39collect_adoc_files_skips_generated_dirs
FNDA:1,_RNvNtNtCs9svORWNbXMv_13weaveback_api4lint5testss_44lint_detects_new_chunk_before_previous_close
FNDA:1,_RNvNtNtCs9svORWNbXMv_13weaveback_api4lint5testss_44lint_detects_uncommented_triple_angle_chunks
FNDA:1,_RNvNtNtCs9svORWNbXMv_13weaveback_api4lint5testss_46lint_detects_unterminated_chunk_at_end_of_file
FNDA:1,_RNvNtNtCs9svORWNbXMv_13weaveback_api4lint5testss_47lint_detects_hash_prefixed_angle_bracket_chunks
FNDA:1,_RNvNtNtCs9svORWNbXMv_13weaveback_api4lint5testss_48load_lint_syntaxes_reads_pass_syntax_from_config
FNDA:1,_RNvNtNtCs9svORWNbXMv_13weaveback_api4lint5testss_55run_lint_is_warning_by_default_and_error_in_strict_mode
FNDA:2,_RNvMNtCs9svORWNbXMv_13weaveback_api4lintNtB2_8LintRule2id
FNDA:3,_RNvNtCs9svORWNbXMv_13weaveback_api4lint10lint_paths
FNDA:6,_RNvNtCs9svORWNbXMv_13weaveback_api4lint15should_skip_dir
FNDA:6,_RNvNtCs9svORWNbXMv_13weaveback_api4lint18collect_adoc_files
FNDA:3,_RNvNtCs9svORWNbXMv_13weaveback_api4lint18load_lint_syntaxes
FNDA:4,_RNvNtCs9svORWNbXMv_13weaveback_api4lint22lint_syntaxes_for_file
FNDA:20,_RNvNtCs9svORWNbXMv_13weaveback_api4lint22parse_chunk_definition
FNDA:5,_RNvNtCs9svORWNbXMv_13weaveback_api4lint23load_lint_syntaxes_from
FNDA:31,_RNvNtCs9svORWNbXMv_13weaveback_api4lint27parse_chunk_definition_name
FNDA:7,_RNvNtCs9svORWNbXMv_13weaveback_api4lint29lint_chunk_body_outside_fence
FNDA:5,_RNvNtCs9svORWNbXMv_13weaveback_api4lint34lint_unterminated_chunk_definition
FNDA:3,_RNvNtCs9svORWNbXMv_13weaveback_api4lint8run_lint
FNDA:0,_RNvXs_NtCs9svORWNbXMv_13weaveback_api4lintNtB4_8LintRuleNtNtNtCs9yMf5VoQcqS_4core3str6traits7FromStr8from_str
FNDA:1,_RNCNCNvNtCs9svORWNbXMv_13weaveback_api4lint22lint_syntaxes_for_file00B7_
FNDA:0,_RNCNvNtCs9svORWNbXMv_13weaveback_api4lint10lint_paths0B5_
FNDA:0,_RNCNvNtCs9svORWNbXMv_13weaveback_api4lint10lint_pathss0_0B5_
FNDA:0,_RNCNvNtCs9svORWNbXMv_13weaveback_api4lint10lint_pathss_0B5_
FNDA:6,_RNCNvNtCs9svORWNbXMv_13weaveback_api4lint15should_skip_dir0B5_
FNDA:3,_RNCNvNtCs9svORWNbXMv_13weaveback_api4lint18collect_adoc_files0B5_
FNDA:1,_RNCNvNtCs9svORWNbXMv_13weaveback_api4lint18collect_adoc_filess_0B5_
FNDA:5,_RNCNvNtCs9svORWNbXMv_13weaveback_api4lint22lint_syntaxes_for_file0B5_
FNDA:5,_RNCNvNtCs9svORWNbXMv_13weaveback_api4lint22lint_syntaxes_for_files0_0B5_
FNDA:0,_RNCNvNtCs9svORWNbXMv_13weaveback_api4lint23load_lint_syntaxes_from0B5_
FNDA:0,_RNCNvNtCs9svORWNbXMv_13weaveback_api4lint23load_lint_syntaxes_froms0_0B5_
FNDA:2,_RNCNvNtCs9svORWNbXMv_13weaveback_api4lint23load_lint_syntaxes_froms1_0B5_
FNDA:2,_RNCNvNtCs9svORWNbXMv_13weaveback_api4lint23load_lint_syntaxes_froms2_0B5_
FNDA:0,_RNCNvNtCs9svORWNbXMv_13weaveback_api4lint23load_lint_syntaxes_froms_0B5_
FNDA:7,_RNCNvNtCs9svORWNbXMv_13weaveback_api4lint29lint_chunk_body_outside_fence0B5_
FNF:39
FNH:32
DA:12,2
DA:13,2
DA:14,2
DA:15,0
DA:17,2
DA:23,0
DA:24,0
DA:25,0
DA:26,0
DA:27,0
DA:28,0
DA:29,0
DA:31,0
DA:42,6
DA:43,6
DA:44,0
DA:46,0
DA:47,6
DA:48,6
DA:49,6
DA:50,6
DA:52,6
DA:53,6
DA:54,3
DA:55,3
DA:56,3
DA:57,3
DA:58,3
DA:59,3
DA:60,0
DA:61,3
DA:62,4
DA:63,4
DA:64,4
DA:65,4
DA:66,3
DA:67,1
DA:68,2
DA:69,2
DA:70,1
DA:71,1
DA:72,1
DA:74,3
DA:75,6
DA:97,5
DA:98,5
DA:99,5
DA:100,5
DA:101,5
DA:102,5
DA:103,5
DA:104,5
DA:105,5
DA:106,5
DA:108,5
DA:109,3
DA:111,2
DA:112,0
DA:115,2
DA:116,2
DA:117,2
DA:118,2
DA:119,2
DA:120,2
DA:121,2
DA:122,2
DA:123,2
DA:124,2
DA:125,2
DA:126,2
DA:127,2
DA:128,2
DA:129,2
DA:130,2
DA:133,2
DA:134,5
DA:136,3
DA:137,3
DA:138,3
DA:140,4
DA:141,4
DA:142,4
DA:143,4
DA:144,5
DA:145,4
DA:146,4
DA:148,4
DA:149,4
DA:150,4
DA:151,4
DA:152,5
DA:153,4
DA:155,0
DA:157,4
DA:158,4
DA:159,31
DA:160,32
DA:161,32
DA:162,8
DA:163,24
DA:165,23
DA:166,31
DA:168,20
DA:169,20
DA:170,20
DA:171,6
DA:172,14
DA:174,14
DA:175,20
DA:177,7
DA:178,7
DA:179,7
DA:180,7
DA:181,7
DA:182,7
DA:183,7
DA:184,31
DA:185,31
DA:186,31
DA:187,2
DA:188,2
DA:189,29
DA:190,6
DA:191,29
DA:192,6
DA:193,6
DA:194,6
DA:195,6
DA:196,6
DA:197,6
DA:198,6
DA:199,6
DA:200,6
DA:201,6
DA:202,6
DA:203,6
DA:204,6
DA:205,23
DA:207,7
DA:208,7
DA:210,5
DA:211,5
DA:212,5
DA:213,5
DA:214,5
DA:215,5
DA:216,5
DA:218,24
DA:219,24
DA:221,24
DA:222,12
DA:224,4
DA:225,4
DA:226,20
DA:228,20
DA:229,6
DA:230,1
DA:231,1
DA:232,1
DA:233,1
DA:234,1
DA:235,1
DA:236,1
DA:237,1
DA:238,1
DA:239,1
DA:240,1
DA:241,1
DA:242,5
DA:243,6
DA:244,14
DA:247,5
DA:248,1
DA:249,1
DA:250,1
DA:251,1
DA:252,1
DA:253,1
DA:254,1
DA:255,1
DA:256,1
DA:257,1
DA:258,4
DA:260,5
DA:261,5
DA:263,3
DA:264,3
DA:265,3
DA:266,3
DA:267,3
DA:268,3
DA:269,3
DA:270,0
DA:272,3
DA:273,3
DA:276,3
DA:277,3
DA:279,3
DA:280,3
DA:281,3
DA:282,3
DA:283,3
DA:284,3
DA:285,3
DA:286,3
DA:287,3
DA:288,3
DA:290,3
DA:291,3
DA:292,3
DA:293,3
DA:294,3
DA:295,3
DA:296,3
DA:297,3
DA:298,3
DA:299,0
DA:300,3
DA:303,3
DA:304,3
DA:305,1
DA:307,1
DA:308,1
DA:309,1
DA:310,1
DA:311,1
DA:312,1
DA:314,1
DA:315,0
DA:316,1
DA:317,1
DA:318,2
DA:319,2
DA:320,0
DA:321,0
DA:322,2
DA:324,2
DA:325,2
DA:326,2
DA:327,2
DA:328,2
DA:329,2
DA:332,2
DA:333,2
DA:334,1
DA:336,1
DA:337,1
DA:339,3
DA:346,1
DA:347,1
DA:348,1
DA:349,1
DA:350,1
DA:351,1
DA:352,1
DA:354,1
DA:355,1
DA:356,1
DA:357,1
DA:358,1
DA:359,1
DA:362,1
DA:363,1
DA:364,1
DA:365,1
DA:366,1
DA:367,1
DA:368,1
DA:370,1
DA:371,1
DA:372,1
DA:375,1
DA:376,1
DA:377,1
DA:378,1
DA:379,1
DA:380,1
DA:381,1
DA:383,1
DA:384,1
DA:385,1
DA:386,1
DA:387,1
DA:388,1
DA:389,1
DA:392,1
DA:393,1
DA:394,1
DA:395,1
DA:396,1
DA:397,1
DA:398,1
DA:400,1
DA:401,1
DA:402,1
DA:403,1
DA:404,1
DA:405,1
DA:408,1
DA:409,1
DA:410,1
DA:411,1
DA:412,1
DA:413,1
DA:414,1
DA:416,1
DA:417,1
DA:418,1
DA:419,1
DA:420,1
DA:423,1
DA:424,1
DA:425,1
DA:426,1
DA:427,1
DA:428,1
DA:429,1
DA:430,1
DA:433,1
DA:434,1
DA:435,1
DA:436,1
DA:446,1
DA:447,1
DA:448,1
DA:450,1
DA:451,1
DA:452,1
DA:453,1
DA:455,1
DA:458,1
DA:459,1
DA:460,1
DA:461,1
DA:471,1
DA:472,1
DA:473,1
DA:474,1
DA:476,1
DA:477,1
DA:479,1
DA:480,1
DA:483,1
DA:484,1
DA:485,1
DA:486,1
DA:487,1
DA:488,1
DA:490,1
DA:491,1
DA:492,1
DA:493,1
DA:494,1
DA:497,1
DA:498,1
DA:499,1
DA:500,1
DA:502,1
DA:503,1
DA:504,1
DA:505,1
DA:508,1
DA:509,1
DA:510,1
DA:511,1
DA:513,1
DA:514,1
BRF:0
BRH:0
LF:382
LH:357
end_of_record
SF:/home/g4/_prj/weaveback/crates/weaveback-api/src/lookup.rs
FN:286,_RNCNCNvNtCsaY2CvWUtqiY_13weaveback_api6lookup13section_range00B7_
FN:299,_RNCNvNtCsaY2CvWUtqiY_13weaveback_api6lookup11title_chain0B5_
FN:341,_RNCNvNtCsaY2CvWUtqiY_13weaveback_api6lookup13extract_prose0B5_
FN:344,_RNCNvNtCsaY2CvWUtqiY_13weaveback_api6lookup13extract_proses_0B5_
FN:262,_RNCNvNtCsaY2CvWUtqiY_13weaveback_api6lookup13heading_level0B5_
FN:286,_RNCNvNtCsaY2CvWUtqiY_13weaveback_api6lookup13section_range0B5_
FN:393,_RNCNvNtCsaY2CvWUtqiY_13weaveback_api6lookup20append_def_locations0B5_
FN:293,_RNvNtCsaY2CvWUtqiY_13weaveback_api6lookup11title_chain
FN:179,_RNvNtCsaY2CvWUtqiY_13weaveback_api6lookup12span_at_line
FN:306,_RNvNtCsaY2CvWUtqiY_13weaveback_api6lookup13extract_prose
FN:257,_RNvNtCsaY2CvWUtqiY_13weaveback_api6lookup13heading_level
FN:109,_RNvNtCsaY2CvWUtqiY_13weaveback_api6lookup13perform_trace
FN:18,_RNvNtCsaY2CvWUtqiY_13weaveback_api6lookup13perform_where
FN:270,_RNvNtCsaY2CvWUtqiY_13weaveback_api6lookup13section_range
FN:47,_RNvNtCsaY2CvWUtqiY_13weaveback_api6lookup16load_source_text
FN:212,_RNvNtCsaY2CvWUtqiY_13weaveback_api6lookup18append_span_fields
FN:379,_RNvNtCsaY2CvWUtqiY_13weaveback_api6lookup20append_def_locations
FN:66,_RNvNtCsaY2CvWUtqiY_13weaveback_api6lookup20perform_trace_coarse
FN:350,_RNvNtCsaY2CvWUtqiY_13weaveback_api6lookup21append_source_context
FN:43,_RNvNtCsaY2CvWUtqiY_13weaveback_api6lookup22trace_warnings_enabled
FN:60,_RNvNtCsaY2CvWUtqiY_13weaveback_api6lookup26build_source_context_value
FN:414,_RNvNtNtCs9svORWNbXMv_13weaveback_api6lookup5tests8resolver
FN:429,_RNvNtNtCs9svORWNbXMv_13weaveback_api6lookup5testss_40perform_where_returns_normalized_mapping
FN:576,_RNvNtNtCs9svORWNbXMv_13weaveback_api6lookup5testss_45perform_trace_validates_line_before_db_lookup
FN:550,_RNvNtNtCs9svORWNbXMv_13weaveback_api6lookup5testss_51append_source_context_skips_chunk_bodies_and_fences
FN:456,_RNvNtNtCs9svORWNbXMv_13weaveback_api6lookup5testss_55append_def_locations_uses_snapshots_for_line_and_column
FN:419,_RNvNtNtCs9svORWNbXMv_13weaveback_api6lookup5testss_59perform_where_validates_line_and_returns_none_when_unmapped
FN:481,_RNvNtNtCs9svORWNbXMv_13weaveback_api6lookup5testss_60perform_trace_uses_snapshot_and_adds_literal_source_location
FN:518,_RNvNtNtCs9svORWNbXMv_13weaveback_api6lookup5testss_61perform_trace_coarse_adds_context_without_precise_span_fields
FN:293,_RNvNtCs9svORWNbXMv_13weaveback_api6lookup11title_chain
FN:179,_RNvNtCs9svORWNbXMv_13weaveback_api6lookup12span_at_line
FN:306,_RNvNtCs9svORWNbXMv_13weaveback_api6lookup13extract_prose
FN:257,_RNvNtCs9svORWNbXMv_13weaveback_api6lookup13heading_level
FN:109,_RNvNtCs9svORWNbXMv_13weaveback_api6lookup13perform_trace
FN:18,_RNvNtCs9svORWNbXMv_13weaveback_api6lookup13perform_where
FN:270,_RNvNtCs9svORWNbXMv_13weaveback_api6lookup13section_range
FN:47,_RNvNtCs9svORWNbXMv_13weaveback_api6lookup16load_source_text
FN:212,_RNvNtCs9svORWNbXMv_13weaveback_api6lookup18append_span_fields
FN:379,_RNvNtCs9svORWNbXMv_13weaveback_api6lookup20append_def_locations
FN:66,_RNvNtCs9svORWNbXMv_13weaveback_api6lookup20perform_trace_coarse
FN:350,_RNvNtCs9svORWNbXMv_13weaveback_api6lookup21append_source_context
FN:43,_RNvNtCs9svORWNbXMv_13weaveback_api6lookup22trace_warnings_enabled
FN:60,_RNvNtCs9svORWNbXMv_13weaveback_api6lookup26build_source_context_value
FN:286,_RNCNCNvNtCs9svORWNbXMv_13weaveback_api6lookup13section_range00B7_
FN:299,_RNCNvNtCs9svORWNbXMv_13weaveback_api6lookup11title_chain0B5_
FN:341,_RNCNvNtCs9svORWNbXMv_13weaveback_api6lookup13extract_prose0B5_
FN:344,_RNCNvNtCs9svORWNbXMv_13weaveback_api6lookup13extract_proses_0B5_
FN:262,_RNCNvNtCs9svORWNbXMv_13weaveback_api6lookup13heading_level0B5_
FN:286,_RNCNvNtCs9svORWNbXMv_13weaveback_api6lookup13section_range0B5_
FN:393,_RNCNvNtCs9svORWNbXMv_13weaveback_api6lookup20append_def_locations0B5_
FNDA:0,_RNCNCNvNtCsaY2CvWUtqiY_13weaveback_api6lookup13section_range00B7_
FNDA:0,_RNCNvNtCsaY2CvWUtqiY_13weaveback_api6lookup11title_chain0B5_
FNDA:0,_RNCNvNtCsaY2CvWUtqiY_13weaveback_api6lookup13extract_prose0B5_
FNDA:0,_RNCNvNtCsaY2CvWUtqiY_13weaveback_api6lookup13extract_proses_0B5_
FNDA:0,_RNCNvNtCsaY2CvWUtqiY_13weaveback_api6lookup13heading_level0B5_
FNDA:0,_RNCNvNtCsaY2CvWUtqiY_13weaveback_api6lookup13section_range0B5_
FNDA:0,_RNCNvNtCsaY2CvWUtqiY_13weaveback_api6lookup20append_def_locations0B5_
FNDA:0,_RNvNtCsaY2CvWUtqiY_13weaveback_api6lookup11title_chain
FNDA:0,_RNvNtCsaY2CvWUtqiY_13weaveback_api6lookup12span_at_line
FNDA:0,_RNvNtCsaY2CvWUtqiY_13weaveback_api6lookup13extract_prose
FNDA:0,_RNvNtCsaY2CvWUtqiY_13weaveback_api6lookup13heading_level
FNDA:0,_RNvNtCsaY2CvWUtqiY_13weaveback_api6lookup13perform_trace
FNDA:0,_RNvNtCsaY2CvWUtqiY_13weaveback_api6lookup13perform_where
FNDA:0,_RNvNtCsaY2CvWUtqiY_13weaveback_api6lookup13section_range
FNDA:0,_RNvNtCsaY2CvWUtqiY_13weaveback_api6lookup16load_source_text
FNDA:0,_RNvNtCsaY2CvWUtqiY_13weaveback_api6lookup18append_span_fields
FNDA:0,_RNvNtCsaY2CvWUtqiY_13weaveback_api6lookup20append_def_locations
FNDA:0,_RNvNtCsaY2CvWUtqiY_13weaveback_api6lookup20perform_trace_coarse
FNDA:0,_RNvNtCsaY2CvWUtqiY_13weaveback_api6lookup21append_source_context
FNDA:0,_RNvNtCsaY2CvWUtqiY_13weaveback_api6lookup22trace_warnings_enabled
FNDA:0,_RNvNtCsaY2CvWUtqiY_13weaveback_api6lookup26build_source_context_value
FNDA:5,_RNvNtNtCs9svORWNbXMv_13weaveback_api6lookup5tests8resolver
FNDA:1,_RNvNtNtCs9svORWNbXMv_13weaveback_api6lookup5testss_40perform_where_returns_normalized_mapping
FNDA:1,_RNvNtNtCs9svORWNbXMv_13weaveback_api6lookup5testss_45perform_trace_validates_line_before_db_lookup
FNDA:1,_RNvNtNtCs9svORWNbXMv_13weaveback_api6lookup5testss_51append_source_context_skips_chunk_bodies_and_fences
FNDA:1,_RNvNtNtCs9svORWNbXMv_13weaveback_api6lookup5testss_55append_def_locations_uses_snapshots_for_line_and_column
FNDA:1,_RNvNtNtCs9svORWNbXMv_13weaveback_api6lookup5testss_59perform_where_validates_line_and_returns_none_when_unmapped
FNDA:1,_RNvNtNtCs9svORWNbXMv_13weaveback_api6lookup5testss_60perform_trace_uses_snapshot_and_adds_literal_source_location
FNDA:1,_RNvNtNtCs9svORWNbXMv_13weaveback_api6lookup5testss_61perform_trace_coarse_adds_context_without_precise_span_fields
FNDA:23,_RNvNtCs9svORWNbXMv_13weaveback_api6lookup11title_chain
FNDA:10,_RNvNtCs9svORWNbXMv_13weaveback_api6lookup12span_at_line
FNDA:23,_RNvNtCs9svORWNbXMv_13weaveback_api6lookup13extract_prose
FNDA:157,_RNvNtCs9svORWNbXMv_13weaveback_api6lookup13heading_level
FNDA:22,_RNvNtCs9svORWNbXMv_13weaveback_api6lookup13perform_trace
FNDA:4,_RNvNtCs9svORWNbXMv_13weaveback_api6lookup13perform_where
FNDA:23,_RNvNtCs9svORWNbXMv_13weaveback_api6lookup13section_range
FNDA:25,_RNvNtCs9svORWNbXMv_13weaveback_api6lookup16load_source_text
FNDA:6,_RNvNtCs9svORWNbXMv_13weaveback_api6lookup18append_span_fields
FNDA:2,_RNvNtCs9svORWNbXMv_13weaveback_api6lookup20append_def_locations
FNDA:23,_RNvNtCs9svORWNbXMv_13weaveback_api6lookup20perform_trace_coarse
FNDA:23,_RNvNtCs9svORWNbXMv_13weaveback_api6lookup21append_source_context
FNDA:0,_RNvNtCs9svORWNbXMv_13weaveback_api6lookup22trace_warnings_enabled
FNDA:16,_RNvNtCs9svORWNbXMv_13weaveback_api6lookup26build_source_context_value
FNDA:1,_RNCNCNvNtCs9svORWNbXMv_13weaveback_api6lookup13section_range00B7_
FNDA:24,_RNCNvNtCs9svORWNbXMv_13weaveback_api6lookup11title_chain0B5_
FNDA:23,_RNCNvNtCs9svORWNbXMv_13weaveback_api6lookup13extract_prose0B5_
FNDA:24,_RNCNvNtCs9svORWNbXMv_13weaveback_api6lookup13extract_proses_0B5_
FNDA:234,_RNCNvNtCs9svORWNbXMv_13weaveback_api6lookup13heading_level0B5_
FNDA:4,_RNCNvNtCs9svORWNbXMv_13weaveback_api6lookup13section_range0B5_
FNDA:2,_RNCNvNtCs9svORWNbXMv_13weaveback_api6lookup20append_def_locations0B5_
FNF:29
FNH:28
DA:18,4
DA:19,4
DA:20,4
DA:21,4
DA:22,4
DA:23,4
DA:24,4
DA:25,1
DA:26,3
DA:27,3
DA:29,3
DA:30,1
DA:31,1
DA:32,1
DA:33,1
DA:34,1
DA:35,1
DA:36,1
DA:37,1
DA:38,1
DA:40,2
DA:42,4
DA:43,0
DA:44,0
DA:45,0
DA:47,25
DA:48,25
DA:49,25
DA:50,25
DA:51,25
DA:52,25
DA:53,25
DA:54,20
DA:56,5
DA:58,25
DA:60,16
DA:61,16
DA:62,16
DA:63,16
DA:64,16
DA:66,23
DA:67,23
DA:68,23
DA:69,23
DA:70,23
DA:71,23
DA:72,23
DA:73,1
DA:74,22
DA:75,22
DA:77,22
DA:78,11
DA:79,11
DA:82,11
DA:83,11
DA:84,11
DA:85,11
DA:86,11
DA:87,11
DA:88,11
DA:89,11
DA:92,11
DA:93,11
DA:94,11
DA:95,11
DA:96,11
DA:97,11
DA:99,0
DA:100,0
DA:101,0
DA:102,0
DA:106,11
DA:107,23
DA:109,22
DA:110,22
DA:111,22
DA:112,22
DA:113,22
DA:114,22
DA:115,22
DA:116,22
DA:117,22
DA:118,11
DA:119,10
DA:122,10
DA:123,0
DA:125,10
DA:126,10
DA:127,10
DA:128,0
DA:129,0
DA:130,0
DA:131,0
DA:132,0
DA:135,10
DA:136,10
DA:137,0
DA:138,10
DA:140,10
DA:141,10
DA:142,10
DA:143,10
DA:148,10
DA:149,10
DA:150,10
DA:151,10
DA:152,10
DA:153,6
DA:154,6
DA:155,6
DA:156,0
DA:157,0
DA:158,0
DA:159,0
DA:160,0
DA:161,0
DA:162,0
DA:163,6
DA:165,4
DA:166,0
DA:168,0
DA:169,0
DA:170,0
DA:171,0
DA:175,10
DA:176,22
DA:179,10
DA:180,10
DA:181,10
DA:182,10
DA:183,10
DA:184,10
DA:185,10
DA:186,1
DA:188,9
DA:189,9
DA:190,155
DA:191,155
DA:192,24
DA:193,24
DA:194,8
DA:195,8
DA:196,16
DA:197,131
DA:199,9
DA:202,9
DA:203,9
DA:204,9
DA:205,9
DA:206,9
DA:207,9
DA:208,9
DA:209,10
DA:212,6
DA:213,6
DA:214,6
DA:215,6
DA:216,6
DA:217,6
DA:218,6
DA:219,0
DA:221,6
DA:222,0
DA:224,6
DA:225,6
DA:227,6
DA:228,6
DA:229,6
DA:230,6
DA:231,6
DA:233,6
DA:234,6
DA:235,0
DA:236,0
DA:237,0
DA:238,0
DA:240,6
DA:242,6
DA:243,0
DA:244,0
DA:245,0
DA:246,0
DA:247,0
DA:248,0
DA:249,0
DA:250,0
DA:251,0
DA:252,0
DA:253,6
DA:255,6
DA:257,157
DA:258,157
DA:259,157
DA:260,31
DA:261,126
DA:262,234
DA:263,126
DA:264,63
DA:266,63
DA:268,157
DA:270,23
DA:271,23
DA:272,23
DA:273,23
DA:274,54
DA:275,54
DA:276,20
DA:277,20
DA:278,20
DA:279,34
DA:282,23
DA:283,23
DA:284,23
DA:285,23
DA:286,23
DA:287,23
DA:288,23
DA:290,23
DA:291,23
DA:293,23
DA:294,23
DA:295,23
DA:296,99
DA:297,99
DA:298,42
DA:299,42
DA:300,42
DA:301,57
DA:303,23
DA:304,23
DA:306,23
DA:307,23
DA:308,23
DA:309,23
DA:310,23
DA:312,57
DA:313,57
DA:314,57
DA:315,2
DA:316,2
DA:317,55
DA:318,55
DA:319,1
DA:320,1
DA:321,54
DA:322,54
DA:323,1
DA:324,1
DA:325,53
DA:326,53
DA:327,51
DA:328,51
DA:331,23
DA:332,23
DA:333,51
DA:334,51
DA:335,51
DA:336,2
DA:337,49
DA:338,49
DA:339,49
DA:341,23
DA:342,0
DA:343,0
DA:344,24
DA:345,1
DA:346,1
DA:347,23
DA:348,23
DA:350,23
DA:351,23
DA:352,23
DA:353,23
DA:354,23
DA:355,23
DA:356,23
DA:357,0
DA:358,23
DA:359,23
DA:360,23
DA:361,23
DA:362,23
DA:363,23
DA:364,23
DA:366,23
DA:367,23
DA:368,23
DA:369,23
DA:370,23
DA:373,23
DA:374,23
DA:379,2
DA:380,2
DA:381,2
DA:382,2
DA:383,2
DA:384,2
DA:385,2
DA:386,2
DA:387,1
DA:389,1
DA:391,2
DA:392,2
DA:393,2
DA:395,2
DA:396,2
DA:397,2
DA:398,2
DA:399,2
DA:400,2
DA:401,2
DA:402,2
DA:403,2
DA:404,2
DA:405,2
DA:406,2
DA:407,2
DA:414,5
DA:415,5
DA:416,5
DA:419,1
DA:420,1
DA:421,1
DA:423,1
DA:424,1
DA:425,1
DA:426,1
DA:429,1
DA:430,1
DA:431,1
DA:432,1
DA:433,1
DA:434,1
DA:435,1
DA:436,1
DA:437,1
DA:438,1
DA:439,1
DA:440,1
DA:441,1
DA:442,1
DA:444,1
DA:446,1
DA:447,1
DA:448,1
DA:449,1
DA:450,1
DA:451,1
DA:452,1
DA:453,1
DA:456,1
DA:457,1
DA:458,1
DA:459,1
DA:460,1
DA:461,1
DA:462,1
DA:463,1
DA:465,1
DA:466,1
DA:467,1
DA:469,1
DA:470,1
DA:471,1
DA:472,1
DA:473,1
DA:475,1
DA:476,1
DA:477,1
DA:478,1
DA:481,1
DA:482,1
DA:483,1
DA:484,1
DA:485,1
DA:486,1
DA:487,1
DA:488,1
DA:489,1
DA:490,1
DA:491,1
DA:492,1
DA:493,1
DA:494,1
DA:496,1
DA:497,1
DA:498,1
DA:500,1
DA:501,1
DA:502,1
DA:504,1
DA:505,1
DA:506,1
DA:507,1
DA:508,1
DA:509,1
DA:510,1
DA:511,1
DA:512,1
DA:514,1
DA:515,1
DA:518,1
DA:519,1
DA:520,1
DA:521,1
DA:522,1
DA:523,1
DA:524,1
DA:525,1
DA:526,1
DA:527,1
DA:528,1
DA:529,1
DA:530,1
DA:531,1
DA:533,1
DA:534,1
DA:535,1
DA:537,1
DA:538,1
DA:539,1
DA:541,1
DA:542,1
DA:543,1
DA:544,1
DA:545,1
DA:546,1
DA:547,1
DA:550,1
DA:551,1
DA:552,1
DA:553,1
DA:554,1
DA:555,1
DA:556,1
DA:557,1
DA:558,1
DA:559,1
DA:560,1
DA:561,1
DA:562,1
DA:563,1
DA:564,1
DA:565,1
DA:566,1
DA:567,1
DA:568,1
DA:569,1
DA:571,1
DA:572,1
DA:573,1
DA:576,1
DA:577,1
DA:578,1
DA:579,1
DA:580,1
DA:581,1
BRF:0
BRH:0
LF:465
LH:420
end_of_record
SF:/home/g4/_prj/weaveback/crates/weaveback-api/src/lsp_runner.rs
FN:25,_RNCNvNtCsaY2CvWUtqiY_13weaveback_api10lsp_runner7run_lsp0B5_
FN:38,_RNCNvNtCsaY2CvWUtqiY_13weaveback_api10lsp_runner7run_lsps0_0B5_
FN:44,_RNCNvNtCsaY2CvWUtqiY_13weaveback_api10lsp_runner7run_lsps1_0B5_
FN:47,_RNCNvNtCsaY2CvWUtqiY_13weaveback_api10lsp_runner7run_lsps2_0B5_
FN:52,_RNCNvNtCsaY2CvWUtqiY_13weaveback_api10lsp_runner7run_lsps3_0B5_
FN:55,_RNCNvNtCsaY2CvWUtqiY_13weaveback_api10lsp_runner7run_lsps4_0B5_
FN:58,_RNCNvNtCsaY2CvWUtqiY_13weaveback_api10lsp_runner7run_lsps5_0B5_
FN:62,_RNCNvNtCsaY2CvWUtqiY_13weaveback_api10lsp_runner7run_lsps6_0B5_
FN:70,_RNCNvNtCsaY2CvWUtqiY_13weaveback_api10lsp_runner7run_lsps7_0B5_
FN:89,_RNCNvNtCsaY2CvWUtqiY_13weaveback_api10lsp_runner7run_lsps8_0B5_
FN:92,_RNCNvNtCsaY2CvWUtqiY_13weaveback_api10lsp_runner7run_lsps9_0B5_
FN:32,_RNCNvNtCsaY2CvWUtqiY_13weaveback_api10lsp_runner7run_lsps_0B5_
FN:95,_RNCNvNtCsaY2CvWUtqiY_13weaveback_api10lsp_runner7run_lspsa_0B5_
FN:100,_RNCNvNtCsaY2CvWUtqiY_13weaveback_api10lsp_runner7run_lspsb_0B5_
FN:108,_RNCNvNtCsaY2CvWUtqiY_13weaveback_api10lsp_runner7run_lspsc_0B5_
FN:16,_RNvNtCsaY2CvWUtqiY_13weaveback_api10lsp_runner7run_lsp
FN:189,_RNvNtNtCs9svORWNbXMv_13weaveback_api10lsp_runner5testss_22test_run_lsp_with_mock
FN:165,_RNvNtNtCs9svORWNbXMv_13weaveback_api10lsp_runner5testss_32run_lsp_errors_when_db_not_found
FN:131,_RNvNtNtCs9svORWNbXMv_13weaveback_api10lsp_runner5testss_36lsp_cmd_definition_fields_accessible
FN:148,_RNvNtNtCs9svORWNbXMv_13weaveback_api10lsp_runner5testss_36lsp_cmd_references_fields_accessible
FN:25,_RNCNvNtCs9svORWNbXMv_13weaveback_api10lsp_runner7run_lsp0B5_
FN:38,_RNCNvNtCs9svORWNbXMv_13weaveback_api10lsp_runner7run_lsps0_0B5_
FN:44,_RNCNvNtCs9svORWNbXMv_13weaveback_api10lsp_runner7run_lsps1_0B5_
FN:47,_RNCNvNtCs9svORWNbXMv_13weaveback_api10lsp_runner7run_lsps2_0B5_
FN:52,_RNCNvNtCs9svORWNbXMv_13weaveback_api10lsp_runner7run_lsps3_0B5_
FN:55,_RNCNvNtCs9svORWNbXMv_13weaveback_api10lsp_runner7run_lsps4_0B5_
FN:58,_RNCNvNtCs9svORWNbXMv_13weaveback_api10lsp_runner7run_lsps5_0B5_
FN:62,_RNCNvNtCs9svORWNbXMv_13weaveback_api10lsp_runner7run_lsps6_0B5_
FN:70,_RNCNvNtCs9svORWNbXMv_13weaveback_api10lsp_runner7run_lsps7_0B5_
FN:89,_RNCNvNtCs9svORWNbXMv_13weaveback_api10lsp_runner7run_lsps8_0B5_
FN:92,_RNCNvNtCs9svORWNbXMv_13weaveback_api10lsp_runner7run_lsps9_0B5_
FN:32,_RNCNvNtCs9svORWNbXMv_13weaveback_api10lsp_runner7run_lsps_0B5_
FN:95,_RNCNvNtCs9svORWNbXMv_13weaveback_api10lsp_runner7run_lspsa_0B5_
FN:100,_RNCNvNtCs9svORWNbXMv_13weaveback_api10lsp_runner7run_lspsb_0B5_
FN:108,_RNCNvNtCs9svORWNbXMv_13weaveback_api10lsp_runner7run_lspsc_0B5_
FN:16,_RNvNtCs9svORWNbXMv_13weaveback_api10lsp_runner7run_lsp
FNDA:0,_RNCNvNtCsaY2CvWUtqiY_13weaveback_api10lsp_runner7run_lsp0B5_
FNDA:0,_RNCNvNtCsaY2CvWUtqiY_13weaveback_api10lsp_runner7run_lsps0_0B5_
FNDA:0,_RNCNvNtCsaY2CvWUtqiY_13weaveback_api10lsp_runner7run_lsps1_0B5_
FNDA:0,_RNCNvNtCsaY2CvWUtqiY_13weaveback_api10lsp_runner7run_lsps2_0B5_
FNDA:0,_RNCNvNtCsaY2CvWUtqiY_13weaveback_api10lsp_runner7run_lsps3_0B5_
FNDA:0,_RNCNvNtCsaY2CvWUtqiY_13weaveback_api10lsp_runner7run_lsps4_0B5_
FNDA:0,_RNCNvNtCsaY2CvWUtqiY_13weaveback_api10lsp_runner7run_lsps5_0B5_
FNDA:0,_RNCNvNtCsaY2CvWUtqiY_13weaveback_api10lsp_runner7run_lsps6_0B5_
FNDA:0,_RNCNvNtCsaY2CvWUtqiY_13weaveback_api10lsp_runner7run_lsps7_0B5_
FNDA:0,_RNCNvNtCsaY2CvWUtqiY_13weaveback_api10lsp_runner7run_lsps8_0B5_
FNDA:0,_RNCNvNtCsaY2CvWUtqiY_13weaveback_api10lsp_runner7run_lsps9_0B5_
FNDA:0,_RNCNvNtCsaY2CvWUtqiY_13weaveback_api10lsp_runner7run_lsps_0B5_
FNDA:0,_RNCNvNtCsaY2CvWUtqiY_13weaveback_api10lsp_runner7run_lspsa_0B5_
FNDA:0,_RNCNvNtCsaY2CvWUtqiY_13weaveback_api10lsp_runner7run_lspsb_0B5_
FNDA:0,_RNCNvNtCsaY2CvWUtqiY_13weaveback_api10lsp_runner7run_lspsc_0B5_
FNDA:0,_RNvNtCsaY2CvWUtqiY_13weaveback_api10lsp_runner7run_lsp
FNDA:1,_RNvNtNtCs9svORWNbXMv_13weaveback_api10lsp_runner5testss_22test_run_lsp_with_mock
FNDA:1,_RNvNtNtCs9svORWNbXMv_13weaveback_api10lsp_runner5testss_32run_lsp_errors_when_db_not_found
FNDA:1,_RNvNtNtCs9svORWNbXMv_13weaveback_api10lsp_runner5testss_36lsp_cmd_definition_fields_accessible
FNDA:1,_RNvNtNtCs9svORWNbXMv_13weaveback_api10lsp_runner5testss_36lsp_cmd_references_fields_accessible
FNDA:1,_RNCNvNtCs9svORWNbXMv_13weaveback_api10lsp_runner7run_lsp0B5_
FNDA:0,_RNCNvNtCs9svORWNbXMv_13weaveback_api10lsp_runner7run_lsps0_0B5_
FNDA:0,_RNCNvNtCs9svORWNbXMv_13weaveback_api10lsp_runner7run_lsps1_0B5_
FNDA:0,_RNCNvNtCs9svORWNbXMv_13weaveback_api10lsp_runner7run_lsps2_0B5_
FNDA:0,_RNCNvNtCs9svORWNbXMv_13weaveback_api10lsp_runner7run_lsps3_0B5_
FNDA:0,_RNCNvNtCs9svORWNbXMv_13weaveback_api10lsp_runner7run_lsps4_0B5_
FNDA:0,_RNCNvNtCs9svORWNbXMv_13weaveback_api10lsp_runner7run_lsps5_0B5_
FNDA:0,_RNCNvNtCs9svORWNbXMv_13weaveback_api10lsp_runner7run_lsps6_0B5_
FNDA:0,_RNCNvNtCs9svORWNbXMv_13weaveback_api10lsp_runner7run_lsps7_0B5_
FNDA:0,_RNCNvNtCs9svORWNbXMv_13weaveback_api10lsp_runner7run_lsps8_0B5_
FNDA:0,_RNCNvNtCs9svORWNbXMv_13weaveback_api10lsp_runner7run_lsps9_0B5_
FNDA:2,_RNCNvNtCs9svORWNbXMv_13weaveback_api10lsp_runner7run_lsps_0B5_
FNDA:0,_RNCNvNtCs9svORWNbXMv_13weaveback_api10lsp_runner7run_lspsa_0B5_
FNDA:0,_RNCNvNtCs9svORWNbXMv_13weaveback_api10lsp_runner7run_lspsb_0B5_
FNDA:0,_RNCNvNtCs9svORWNbXMv_13weaveback_api10lsp_runner7run_lspsc_0B5_
FNDA:3,_RNvNtCs9svORWNbXMv_13weaveback_api10lsp_runner7run_lsp
FNF:20
FNH:7
DA:16,3
DA:17,3
DA:18,3
DA:19,3
DA:20,3
DA:21,3
DA:22,3
DA:23,3
DA:24,3
DA:25,3
DA:26,2
DA:28,2
DA:29,1
DA:30,1
DA:32,2
DA:34,2
DA:35,2
DA:36,0
DA:37,0
DA:38,0
DA:39,0
DA:43,2
DA:44,2
DA:46,2
DA:47,2
DA:49,2
DA:50,1
DA:51,1
DA:52,1
DA:54,1
DA:55,1
DA:57,1
DA:58,1
DA:60,1
DA:61,1
DA:62,1
DA:63,1
DA:64,1
DA:66,1
DA:67,1
DA:68,1
DA:69,1
DA:70,1
DA:72,1
DA:73,0
DA:74,1
DA:75,1
DA:76,1
DA:77,1
DA:78,1
DA:79,1
DA:80,1
DA:81,1
DA:82,0
DA:83,0
DA:84,0
DA:87,1
DA:88,1
DA:89,1
DA:91,1
DA:92,1
DA:94,1
DA:95,1
DA:97,1
DA:98,1
DA:99,1
DA:100,1
DA:101,1
DA:102,1
DA:104,1
DA:105,1
DA:106,1
DA:107,1
DA:108,1
DA:110,1
DA:111,0
DA:112,1
DA:113,1
DA:114,1
DA:115,1
DA:116,1
DA:117,1
DA:118,1
DA:119,1
DA:121,1
DA:124,2
DA:125,3
DA:131,1
DA:132,1
DA:133,1
DA:134,1
DA:135,1
DA:136,1
DA:137,1
DA:138,1
DA:139,1
DA:140,1
DA:141,1
DA:143,0
DA:145,1
DA:148,1
DA:149,1
DA:150,1
DA:151,1
DA:152,1
DA:153,1
DA:154,1
DA:155,1
DA:156,1
DA:157,1
DA:158,1
DA:160,0
DA:162,1
DA:165,1
DA:166,1
DA:167,1
DA:168,1
DA:169,1
DA:170,1
DA:171,1
DA:172,1
DA:173,1
DA:174,1
DA:175,1
DA:176,1
DA:177,1
DA:178,1
DA:179,1
DA:181,1
DA:182,1
DA:183,1
DA:184,1
DA:187,1
DA:189,1
DA:190,1
DA:191,1
DA:192,1
DA:193,1
DA:196,1
DA:197,1
DA:199,1
DA:201,1
DA:202,1
DA:203,1
DA:204,1
DA:205,1
DA:206,1
DA:207,1
DA:208,1
DA:209,1
DA:210,1
DA:212,1
DA:213,1
DA:214,1
DA:215,1
DA:216,1
DA:217,1
DA:218,1
DA:219,1
DA:220,1
DA:221,1
DA:222,1
DA:223,1
DA:224,1
DA:225,1
DA:226,1
DA:227,1
DA:228,1
DA:229,1
DA:230,1
DA:231,1
DA:232,1
DA:233,1
DA:234,1
DA:235,1
DA:236,1
DA:237,1
DA:238,1
DA:239,1
DA:240,1
DA:241,1
DA:242,1
DA:243,1
DA:244,1
DA:245,1
DA:246,1
DA:248,1
DA:249,1
DA:250,1
DA:251,1
DA:252,1
DA:254,1
DA:255,1
DA:256,1
DA:257,1
DA:258,1
DA:259,1
DA:260,1
DA:262,1
DA:265,1
DA:266,1
DA:267,1
DA:268,1
DA:269,1
DA:270,1
DA:271,1
DA:272,1
DA:273,1
DA:274,1
DA:275,1
DA:276,1
DA:278,1
DA:279,1
BRF:0
BRH:0
LF:228
LH:204
end_of_record
SF:/home/g4/_prj/weaveback/crates/weaveback-api/src/mcp.rs
FN:22,_RNCNvNtCsaY2CvWUtqiY_13weaveback_api3mcp16get_or_spawn_lsp0B5_
FN:32,_RNCNvNtCsaY2CvWUtqiY_13weaveback_api3mcp16get_or_spawn_lsps0_0B5_
FN:34,_RNCNvNtCsaY2CvWUtqiY_13weaveback_api3mcp16get_or_spawn_lsps1_0B5_
FN:30,_RNCNvNtCsaY2CvWUtqiY_13weaveback_api3mcp16get_or_spawn_lsps_0B5_
FN:1452,_RNvNtNtCs9svORWNbXMv_13weaveback_api3mcp5tests27mcp_chunk_context_not_found
FN:1185,_RNCNvNtNtCs9svORWNbXMv_13weaveback_api3mcp5testss_28mcp_apply_fix_updates_source0B7_
FN:1216,_RNCNvNtNtCs9svORWNbXMv_13weaveback_api3mcp5testss_29mcp_apply_back_updates_source0B7_
FN:1161,_RNCNvNtNtCs9svORWNbXMv_13weaveback_api3mcp5testss_33mcp_search_returns_seeded_results0B7_
FN:1138,_RNCNvNtNtCs9svORWNbXMv_13weaveback_api3mcp5testss_33mcp_trace_returns_seeded_location0B7_
FN:848,_RNCNvNtNtCs9svORWNbXMv_13weaveback_api3mcp5testss_39tools_list_contains_expected_tool_names0B7_
FN:899,_RNvMNtNtCs9svORWNbXMv_13weaveback_api3mcp5testsNtB2_12McpWorkspace10write_file
FN:882,_RNvMNtNtCs9svORWNbXMv_13weaveback_api3mcp5testsNtB2_12McpWorkspace3new
FN:896,_RNvMNtNtCs9svORWNbXMv_13weaveback_api3mcp5testsNtB2_12McpWorkspace7db_path
FN:897,_RNvMNtNtCs9svORWNbXMv_13weaveback_api3mcp5testsNtB2_12McpWorkspace7gen_dir
FN:898,_RNvMNtNtCs9svORWNbXMv_13weaveback_api3mcp5testsNtB2_12McpWorkspace7open_db
FN:1315,_RNvNtNtCs9svORWNbXMv_13weaveback_api3mcp5tests11mcp_rs_path
FN:1319,_RNvNtNtCs9svORWNbXMv_13weaveback_api3mcp5tests13lsp_mcp_drive
FN:1301,_RNvNtNtCs9svORWNbXMv_13weaveback_api3mcp5tests18mcp_workspace_root
FN:911,_RNvNtNtCs9svORWNbXMv_13weaveback_api3mcp5tests9mcp_drive
FN:855,_RNvNtNtCs9svORWNbXMv_13weaveback_api3mcp5testss_17test_run_mcp_loop
FN:1499,_RNvNtNtCs9svORWNbXMv_13weaveback_api3mcp5testss_23mcp_search_success_path
FN:1444,_RNvNtNtCs9svORWNbXMv_13weaveback_api3mcp5testss_26mcp_apply_fix_invalid_args
FN:1279,_RNvNtNtCs9svORWNbXMv_13weaveback_api3mcp5testss_26mcp_coverage_reports_stats
FN:1479,_RNvNtNtCs9svORWNbXMv_13weaveback_api3mcp5testss_27mcp_apply_back_success_path
FN:928,_RNvNtNtCs9svORWNbXMv_13weaveback_api3mcp5testss_27mcp_empty_lines_are_skipped
FN:1378,_RNvNtNtCs9svORWNbXMv_13weaveback_api3mcp5testss_27mcp_protocol_full_handshake
FN:1170,_RNvNtNtCs9svORWNbXMv_13weaveback_api3mcp5testss_28mcp_apply_fix_updates_source
FN:1470,_RNvNtNtCs9svORWNbXMv_13weaveback_api3mcp5testss_28mcp_list_chunks_success_path
FN:1488,_RNvNtNtCs9svORWNbXMv_13weaveback_api3mcp5testss_28mcp_lsp_symbols_success_path
FN:1201,_RNvNtNtCs9svORWNbXMv_13weaveback_api3mcp5testss_29mcp_apply_back_updates_source
FN:1326,_RNvNtNtCs9svORWNbXMv_13weaveback_api3mcp5testss_29mcp_lsp_hover_reaches_handler
FN:1421,_RNvNtNtCs9svORWNbXMv_13weaveback_api3mcp5testss_30mcp_lsp_tools_missing_db_error
FN:946,_RNvNtNtCs9svORWNbXMv_13weaveback_api3mcp5testss_30mcp_unknown_tool_returns_error
FN:1461,_RNvNtNtCs9svORWNbXMv_13weaveback_api3mcp5testss_31mcp_find_chunk_empty_name_error
FN:1339,_RNvNtNtCs9svORWNbXMv_13weaveback_api3mcp5testss_31mcp_lsp_symbols_reaches_handler
FN:1260,_RNvNtNtCs9svORWNbXMv_13weaveback_api3mcp5testss_33mcp_list_tags_returns_seeded_tags
FN:1395,_RNvNtNtCs9svORWNbXMv_13weaveback_api3mcp5testss_33mcp_malformed_and_unknown_methods
FN:1146,_RNvNtNtCs9svORWNbXMv_13weaveback_api3mcp5testss_33mcp_search_returns_seeded_results
FN:1123,_RNvNtNtCs9svORWNbXMv_13weaveback_api3mcp5testss_33mcp_trace_returns_seeded_location
FN:1352,_RNvNtNtCs9svORWNbXMv_13weaveback_api3mcp5testss_34mcp_lsp_definition_reaches_handler
FN:1365,_RNvNtNtCs9svORWNbXMv_13weaveback_api3mcp5testss_34mcp_lsp_references_reaches_handler
FN:955,_RNvNtNtCs9svORWNbXMv_13weaveback_api3mcp5testss_34mcp_trace_missing_db_returns_error
FN:1065,_RNvNtNtCs9svORWNbXMv_13weaveback_api3mcp5testss_35mcp_find_chunk_returns_seeded_chunk
FN:1433,_RNvNtNtCs9svORWNbXMv_13weaveback_api3mcp5testss_35mcp_lsp_unsupported_extension_error
FN:1093,_RNvNtNtCs9svORWNbXMv_13weaveback_api3mcp5testss_35mcp_search_missing_db_returns_error
FN:1046,_RNvNtNtCs9svORWNbXMv_13weaveback_api3mcp5testss_36mcp_list_chunks_returns_seeded_chunk
FN:1011,_RNvNtNtCs9svORWNbXMv_13weaveback_api3mcp5testss_36mcp_search_empty_query_returns_error
FN:1019,_RNvNtNtCs9svORWNbXMv_13weaveback_api3mcp5testss_38mcp_list_tags_missing_db_returns_error
FN:1231,_RNvNtNtCs9svORWNbXMv_13weaveback_api3mcp5testss_39mcp_chunk_context_returns_full_metadata
FN:1027,_RNvNtNtCs9svORWNbXMv_13weaveback_api3mcp5testss_39mcp_coverage_missing_lcov_returns_error
FN:1003,_RNvNtNtCs9svORWNbXMv_13weaveback_api3mcp5testss_39mcp_find_chunk_empty_name_returns_error
FN:921,_RNvNtNtCs9svORWNbXMv_13weaveback_api3mcp5testss_39mcp_notifications_initialized_is_silent
FN:833,_RNvNtNtCs9svORWNbXMv_13weaveback_api3mcp5testss_39tools_list_contains_expected_tool_names
FN:1035,_RNvNtNtCs9svORWNbXMv_13weaveback_api3mcp5testss_40mcp_apply_back_missing_db_sends_response
FN:995,_RNvNtNtCs9svORWNbXMv_13weaveback_api3mcp5testss_40mcp_list_chunks_missing_db_returns_error
FN:971,_RNvNtNtCs9svORWNbXMv_13weaveback_api3mcp5testss_41mcp_apply_fix_zero_src_line_returns_error
FN:963,_RNvNtNtCs9svORWNbXMv_13weaveback_api3mcp5testss_41mcp_trace_missing_arguments_returns_error
FN:979,_RNvNtNtCs9svORWNbXMv_13weaveback_api3mcp5testss_42mcp_apply_fix_inverted_range_returns_error
FN:987,_RNvNtNtCs9svORWNbXMv_13weaveback_api3mcp5testss_42mcp_chunk_context_empty_args_returns_error
FN:1083,_RNvNtNtCs9svORWNbXMv_13weaveback_api3mcp5testss_46mcp_list_tags_returns_empty_array_for_fresh_db
FN:935,_RNvNtNtCs9svORWNbXMv_13weaveback_api3mcp5testss_47mcp_invalid_json_is_skipped_and_valid_continues
FN:817,_RNvNtNtCs9svORWNbXMv_13weaveback_api3mcp5testss_52get_or_spawn_lsp_unsupported_extension_returns_error
FN:1409,_RNvNtNtCs9svORWNbXMv_13weaveback_api3mcp5testss_52mcp_list_resources_and_prompts_are_empty_but_covered
FN:1101,_RNvNtNtCs9svORWNbXMv_13weaveback_api3mcp5testss_54mcp_list_chunks_with_file_filter_returns_only_matching
FN:802,_RINvNtCs9svORWNbXMv_13weaveback_api3mcp10send_errorQINtNtCsjjC6uJeAzJn_5alloc3vec3VechEEB4_
FN:787,_RINvNtCs9svORWNbXMv_13weaveback_api3mcp13send_responseQINtNtCsjjC6uJeAzJn_5alloc3vec3VechEEB4_
FN:40,_RINvNtCs9svORWNbXMv_13weaveback_api3mcp7run_mcpINtNtNtCshbt5Cx3aOt7_3std2io6cursor6CursorNtNtCsjjC6uJeAzJn_5alloc6string6StringEQINtNtB1t_3vec3VechEEB4_
FN:40,_RINvNtCs9svORWNbXMv_13weaveback_api3mcp7run_mcpINtNtNtCshbt5Cx3aOt7_3std2io6cursor6CursorReEQINtNtCsjjC6uJeAzJn_5alloc3vec3VechEEB4_
FN:796,_RINvNtCs9svORWNbXMv_13weaveback_api3mcp9send_textQINtNtCsjjC6uJeAzJn_5alloc3vec3VechEEB4_
FN:70,_RNCINvNtCs9svORWNbXMv_13weaveback_api3mcp7run_mcpINtNtNtCshbt5Cx3aOt7_3std2io6cursor6CursorNtNtCsjjC6uJeAzJn_5alloc6string6StringEQINtNtB1v_3vec3VechEE0B6_
FN:261,_RNCINvNtCs9svORWNbXMv_13weaveback_api3mcp7run_mcpINtNtNtCshbt5Cx3aOt7_3std2io6cursor6CursorNtNtCsjjC6uJeAzJn_5alloc6string6StringEQINtNtB1v_3vec3VechEEs0_0B6_
FN:261,_RNCINvNtCs9svORWNbXMv_13weaveback_api3mcp7run_mcpINtNtNtCshbt5Cx3aOt7_3std2io6cursor6CursorNtNtCsjjC6uJeAzJn_5alloc6string6StringEQINtNtB1v_3vec3VechEEs1_0B6_
FN:262,_RNCINvNtCs9svORWNbXMv_13weaveback_api3mcp7run_mcpINtNtNtCshbt5Cx3aOt7_3std2io6cursor6CursorNtNtCsjjC6uJeAzJn_5alloc6string6StringEQINtNtB1v_3vec3VechEEs2_0B6_
FN:262,_RNCINvNtCs9svORWNbXMv_13weaveback_api3mcp7run_mcpINtNtNtCshbt5Cx3aOt7_3std2io6cursor6CursorNtNtCsjjC6uJeAzJn_5alloc6string6StringEQINtNtB1v_3vec3VechEEs3_0B6_
FN:270,_RNCINvNtCs9svORWNbXMv_13weaveback_api3mcp7run_mcpINtNtNtCshbt5Cx3aOt7_3std2io6cursor6CursorNtNtCsjjC6uJeAzJn_5alloc6string6StringEQINtNtB1v_3vec3VechEEs4_0B6_
FN:271,_RNCINvNtCs9svORWNbXMv_13weaveback_api3mcp7run_mcpINtNtNtCshbt5Cx3aOt7_3std2io6cursor6CursorNtNtCsjjC6uJeAzJn_5alloc6string6StringEQINtNtB1v_3vec3VechEEs5_0B6_
FN:272,_RNCINvNtCs9svORWNbXMv_13weaveback_api3mcp7run_mcpINtNtNtCshbt5Cx3aOt7_3std2io6cursor6CursorNtNtCsjjC6uJeAzJn_5alloc6string6StringEQINtNtB1v_3vec3VechEEs6_0B6_
FN:299,_RNCINvNtCs9svORWNbXMv_13weaveback_api3mcp7run_mcpINtNtNtCshbt5Cx3aOt7_3std2io6cursor6CursorNtNtCsjjC6uJeAzJn_5alloc6string6StringEQINtNtB1v_3vec3VechEEs7_0B6_
FN:300,_RNCINvNtCs9svORWNbXMv_13weaveback_api3mcp7run_mcpINtNtNtCshbt5Cx3aOt7_3std2io6cursor6CursorNtNtCsjjC6uJeAzJn_5alloc6string6StringEQINtNtB1v_3vec3VechEEs8_0B6_
FN:302,_RNCINvNtCs9svORWNbXMv_13weaveback_api3mcp7run_mcpINtNtNtCshbt5Cx3aOt7_3std2io6cursor6CursorNtNtCsjjC6uJeAzJn_5alloc6string6StringEQINtNtB1v_3vec3VechEEs9_0B6_
FN:583,_RNCINvNtCs9svORWNbXMv_13weaveback_api3mcp7run_mcpINtNtNtCshbt5Cx3aOt7_3std2io6cursor6CursorNtNtCsjjC6uJeAzJn_5alloc6string6StringEQINtNtB1v_3vec3VechEEsA_0B6_
FN:584,_RNCINvNtCs9svORWNbXMv_13weaveback_api3mcp7run_mcpINtNtNtCshbt5Cx3aOt7_3std2io6cursor6CursorNtNtCsjjC6uJeAzJn_5alloc6string6StringEQINtNtB1v_3vec3VechEEsB_0B6_
FN:585,_RNCINvNtCs9svORWNbXMv_13weaveback_api3mcp7run_mcpINtNtNtCshbt5Cx3aOt7_3std2io6cursor6CursorNtNtCsjjC6uJeAzJn_5alloc6string6StringEQINtNtB1v_3vec3VechEEsC_0B6_
FN:592,_RNCINvNtCs9svORWNbXMv_13weaveback_api3mcp7run_mcpINtNtNtCshbt5Cx3aOt7_3std2io6cursor6CursorNtNtCsjjC6uJeAzJn_5alloc6string6StringEQINtNtB1v_3vec3VechEEsD_0B6_
FN:624,_RNCINvNtCs9svORWNbXMv_13weaveback_api3mcp7run_mcpINtNtNtCshbt5Cx3aOt7_3std2io6cursor6CursorNtNtCsjjC6uJeAzJn_5alloc6string6StringEQINtNtB1v_3vec3VechEEsE_0B6_
FN:630,_RNCINvNtCs9svORWNbXMv_13weaveback_api3mcp7run_mcpINtNtNtCshbt5Cx3aOt7_3std2io6cursor6CursorNtNtCsjjC6uJeAzJn_5alloc6string6StringEQINtNtB1v_3vec3VechEEsF_0B6_
FN:658,_RNCINvNtCs9svORWNbXMv_13weaveback_api3mcp7run_mcpINtNtNtCshbt5Cx3aOt7_3std2io6cursor6CursorNtNtCsjjC6uJeAzJn_5alloc6string6StringEQINtNtB1v_3vec3VechEEsG_0B6_
FN:664,_RNCINvNtCs9svORWNbXMv_13weaveback_api3mcp7run_mcpINtNtNtCshbt5Cx3aOt7_3std2io6cursor6CursorNtNtCsjjC6uJeAzJn_5alloc6string6StringEQINtNtB1v_3vec3VechEEsH_0B6_
FN:680,_RNCINvNtCs9svORWNbXMv_13weaveback_api3mcp7run_mcpINtNtNtCshbt5Cx3aOt7_3std2io6cursor6CursorNtNtCsjjC6uJeAzJn_5alloc6string6StringEQINtNtB1v_3vec3VechEEsI_0B6_
FN:681,_RNCINvNtCs9svORWNbXMv_13weaveback_api3mcp7run_mcpINtNtNtCshbt5Cx3aOt7_3std2io6cursor6CursorNtNtCsjjC6uJeAzJn_5alloc6string6StringEQINtNtB1v_3vec3VechEEsJ_0B6_
FN:688,_RNCINvNtCs9svORWNbXMv_13weaveback_api3mcp7run_mcpINtNtNtCshbt5Cx3aOt7_3std2io6cursor6CursorNtNtCsjjC6uJeAzJn_5alloc6string6StringEQINtNtB1v_3vec3VechEEsK_0B6_
FN:689,_RNCINvNtCs9svORWNbXMv_13weaveback_api3mcp7run_mcpINtNtNtCshbt5Cx3aOt7_3std2io6cursor6CursorNtNtCsjjC6uJeAzJn_5alloc6string6StringEQINtNtB1v_3vec3VechEEsL_0B6_
FN:698,_RNCINvNtCs9svORWNbXMv_13weaveback_api3mcp7run_mcpINtNtNtCshbt5Cx3aOt7_3std2io6cursor6CursorNtNtCsjjC6uJeAzJn_5alloc6string6StringEQINtNtB1v_3vec3VechEEsM_0B6_
FN:720,_RNCINvNtCs9svORWNbXMv_13weaveback_api3mcp7run_mcpINtNtNtCshbt5Cx3aOt7_3std2io6cursor6CursorNtNtCsjjC6uJeAzJn_5alloc6string6StringEQINtNtB1v_3vec3VechEEsN_0B6_
FN:721,_RNCINvNtCs9svORWNbXMv_13weaveback_api3mcp7run_mcpINtNtNtCshbt5Cx3aOt7_3std2io6cursor6CursorNtNtCsjjC6uJeAzJn_5alloc6string6StringEQINtNtB1v_3vec3VechEEsO_0B6_
FN:731,_RNCINvNtCs9svORWNbXMv_13weaveback_api3mcp7run_mcpINtNtNtCshbt5Cx3aOt7_3std2io6cursor6CursorNtNtCsjjC6uJeAzJn_5alloc6string6StringEQINtNtB1v_3vec3VechEEsP_0B6_
FN:746,_RNCINvNtCs9svORWNbXMv_13weaveback_api3mcp7run_mcpINtNtNtCshbt5Cx3aOt7_3std2io6cursor6CursorNtNtCsjjC6uJeAzJn_5alloc6string6StringEQINtNtB1v_3vec3VechEEsQ_0B6_
FN:747,_RNCINvNtCs9svORWNbXMv_13weaveback_api3mcp7run_mcpINtNtNtCshbt5Cx3aOt7_3std2io6cursor6CursorNtNtCsjjC6uJeAzJn_5alloc6string6StringEQINtNtB1v_3vec3VechEEsR_0B6_
FN:260,_RNCINvNtCs9svORWNbXMv_13weaveback_api3mcp7run_mcpINtNtNtCshbt5Cx3aOt7_3std2io6cursor6CursorNtNtCsjjC6uJeAzJn_5alloc6string6StringEQINtNtB1v_3vec3VechEEs_0B6_
FN:323,_RNCINvNtCs9svORWNbXMv_13weaveback_api3mcp7run_mcpINtNtNtCshbt5Cx3aOt7_3std2io6cursor6CursorNtNtCsjjC6uJeAzJn_5alloc6string6StringEQINtNtB1v_3vec3VechEEsa_0B6_
FN:324,_RNCINvNtCs9svORWNbXMv_13weaveback_api3mcp7run_mcpINtNtNtCshbt5Cx3aOt7_3std2io6cursor6CursorNtNtCsjjC6uJeAzJn_5alloc6string6StringEQINtNtB1v_3vec3VechEEsb_0B6_
FN:325,_RNCINvNtCs9svORWNbXMv_13weaveback_api3mcp7run_mcpINtNtNtCshbt5Cx3aOt7_3std2io6cursor6CursorNtNtCsjjC6uJeAzJn_5alloc6string6StringEQINtNtB1v_3vec3VechEEsc_0B6_
FN:326,_RNCINvNtCs9svORWNbXMv_13weaveback_api3mcp7run_mcpINtNtNtCshbt5Cx3aOt7_3std2io6cursor6CursorNtNtCsjjC6uJeAzJn_5alloc6string6StringEQINtNtB1v_3vec3VechEEsd_0B6_
FN:327,_RNCINvNtCs9svORWNbXMv_13weaveback_api3mcp7run_mcpINtNtNtCshbt5Cx3aOt7_3std2io6cursor6CursorNtNtCsjjC6uJeAzJn_5alloc6string6StringEQINtNtB1v_3vec3VechEEse_0B6_
FN:328,_RNCINvNtCs9svORWNbXMv_13weaveback_api3mcp7run_mcpINtNtNtCshbt5Cx3aOt7_3std2io6cursor6CursorNtNtCsjjC6uJeAzJn_5alloc6string6StringEQINtNtB1v_3vec3VechEEsf_0B6_
FN:330,_RNCINvNtCs9svORWNbXMv_13weaveback_api3mcp7run_mcpINtNtNtCshbt5Cx3aOt7_3std2io6cursor6CursorNtNtCsjjC6uJeAzJn_5alloc6string6StringEQINtNtB1v_3vec3VechEEsg_0B6_
FN:333,_RNCINvNtCs9svORWNbXMv_13weaveback_api3mcp7run_mcpINtNtNtCshbt5Cx3aOt7_3std2io6cursor6CursorNtNtCsjjC6uJeAzJn_5alloc6string6StringEQINtNtB1v_3vec3VechEEsh_0B6_
FN:334,_RNCINvNtCs9svORWNbXMv_13weaveback_api3mcp7run_mcpINtNtNtCshbt5Cx3aOt7_3std2io6cursor6CursorNtNtCsjjC6uJeAzJn_5alloc6string6StringEQINtNtB1v_3vec3VechEEsi_0B6_
FN:335,_RNCINvNtCs9svORWNbXMv_13weaveback_api3mcp7run_mcpINtNtNtCshbt5Cx3aOt7_3std2io6cursor6CursorNtNtCsjjC6uJeAzJn_5alloc6string6StringEQINtNtB1v_3vec3VechEEsj_0B6_
FN:392,_RNCINvNtCs9svORWNbXMv_13weaveback_api3mcp7run_mcpINtNtNtCshbt5Cx3aOt7_3std2io6cursor6CursorNtNtCsjjC6uJeAzJn_5alloc6string6StringEQINtNtB1v_3vec3VechEEsk_0B6_
FN:393,_RNCINvNtCs9svORWNbXMv_13weaveback_api3mcp7run_mcpINtNtNtCshbt5Cx3aOt7_3std2io6cursor6CursorNtNtCsjjC6uJeAzJn_5alloc6string6StringEQINtNtB1v_3vec3VechEEsl_0B6_
FN:394,_RNCINvNtCs9svORWNbXMv_13weaveback_api3mcp7run_mcpINtNtNtCshbt5Cx3aOt7_3std2io6cursor6CursorNtNtCsjjC6uJeAzJn_5alloc6string6StringEQINtNtB1v_3vec3VechEEsm_0B6_
FN:419,_RNCINvNtCs9svORWNbXMv_13weaveback_api3mcp7run_mcpINtNtNtCshbt5Cx3aOt7_3std2io6cursor6CursorNtNtCsjjC6uJeAzJn_5alloc6string6StringEQINtNtB1v_3vec3VechEEsn_0B6_
FN:420,_RNCINvNtCs9svORWNbXMv_13weaveback_api3mcp7run_mcpINtNtNtCshbt5Cx3aOt7_3std2io6cursor6CursorNtNtCsjjC6uJeAzJn_5alloc6string6StringEQINtNtB1v_3vec3VechEEso_0B6_
FN:430,_RNCINvNtCs9svORWNbXMv_13weaveback_api3mcp7run_mcpINtNtNtCshbt5Cx3aOt7_3std2io6cursor6CursorNtNtCsjjC6uJeAzJn_5alloc6string6StringEQINtNtB1v_3vec3VechEEsp_0B6_
FN:448,_RNCINvNtCs9svORWNbXMv_13weaveback_api3mcp7run_mcpINtNtNtCshbt5Cx3aOt7_3std2io6cursor6CursorNtNtCsjjC6uJeAzJn_5alloc6string6StringEQINtNtB1v_3vec3VechEEsq_0B6_
FN:462,_RNCINvNtCs9svORWNbXMv_13weaveback_api3mcp7run_mcpINtNtNtCshbt5Cx3aOt7_3std2io6cursor6CursorNtNtCsjjC6uJeAzJn_5alloc6string6StringEQINtNtB1v_3vec3VechEEsr_0B6_
FN:479,_RNCINvNtCs9svORWNbXMv_13weaveback_api3mcp7run_mcpINtNtNtCshbt5Cx3aOt7_3std2io6cursor6CursorNtNtCsjjC6uJeAzJn_5alloc6string6StringEQINtNtB1v_3vec3VechEEss_0B6_
FN:480,_RNCINvNtCs9svORWNbXMv_13weaveback_api3mcp7run_mcpINtNtNtCshbt5Cx3aOt7_3std2io6cursor6CursorNtNtCsjjC6uJeAzJn_5alloc6string6StringEQINtNtB1v_3vec3VechEEst_0B6_
FN:481,_RNCINvNtCs9svORWNbXMv_13weaveback_api3mcp7run_mcpINtNtNtCshbt5Cx3aOt7_3std2io6cursor6CursorNtNtCsjjC6uJeAzJn_5alloc6string6StringEQINtNtB1v_3vec3VechEEsu_0B6_
FN:488,_RNCINvNtCs9svORWNbXMv_13weaveback_api3mcp7run_mcpINtNtNtCshbt5Cx3aOt7_3std2io6cursor6CursorNtNtCsjjC6uJeAzJn_5alloc6string6StringEQINtNtB1v_3vec3VechEEsv_0B6_
FN:531,_RNCINvNtCs9svORWNbXMv_13weaveback_api3mcp7run_mcpINtNtNtCshbt5Cx3aOt7_3std2io6cursor6CursorNtNtCsjjC6uJeAzJn_5alloc6string6StringEQINtNtB1v_3vec3VechEEsw_0B6_
FN:532,_RNCINvNtCs9svORWNbXMv_13weaveback_api3mcp7run_mcpINtNtNtCshbt5Cx3aOt7_3std2io6cursor6CursorNtNtCsjjC6uJeAzJn_5alloc6string6StringEQINtNtB1v_3vec3VechEEsx_0B6_
FN:533,_RNCINvNtCs9svORWNbXMv_13weaveback_api3mcp7run_mcpINtNtNtCshbt5Cx3aOt7_3std2io6cursor6CursorNtNtCsjjC6uJeAzJn_5alloc6string6StringEQINtNtB1v_3vec3VechEEsy_0B6_
FN:540,_RNCINvNtCs9svORWNbXMv_13weaveback_api3mcp7run_mcpINtNtNtCshbt5Cx3aOt7_3std2io6cursor6CursorNtNtCsjjC6uJeAzJn_5alloc6string6StringEQINtNtB1v_3vec3VechEEsz_0B6_
FN:70,_RNCINvNtCs9svORWNbXMv_13weaveback_api3mcp7run_mcpINtNtNtCshbt5Cx3aOt7_3std2io6cursor6CursorReEQINtNtCsjjC6uJeAzJn_5alloc3vec3VechEE0B6_
FN:261,_RNCINvNtCs9svORWNbXMv_13weaveback_api3mcp7run_mcpINtNtNtCshbt5Cx3aOt7_3std2io6cursor6CursorReEQINtNtCsjjC6uJeAzJn_5alloc3vec3VechEEs0_0B6_
FN:261,_RNCINvNtCs9svORWNbXMv_13weaveback_api3mcp7run_mcpINtNtNtCshbt5Cx3aOt7_3std2io6cursor6CursorReEQINtNtCsjjC6uJeAzJn_5alloc3vec3VechEEs1_0B6_
FN:262,_RNCINvNtCs9svORWNbXMv_13weaveback_api3mcp7run_mcpINtNtNtCshbt5Cx3aOt7_3std2io6cursor6CursorReEQINtNtCsjjC6uJeAzJn_5alloc3vec3VechEEs2_0B6_
FN:262,_RNCINvNtCs9svORWNbXMv_13weaveback_api3mcp7run_mcpINtNtNtCshbt5Cx3aOt7_3std2io6cursor6CursorReEQINtNtCsjjC6uJeAzJn_5alloc3vec3VechEEs3_0B6_
FN:270,_RNCINvNtCs9svORWNbXMv_13weaveback_api3mcp7run_mcpINtNtNtCshbt5Cx3aOt7_3std2io6cursor6CursorReEQINtNtCsjjC6uJeAzJn_5alloc3vec3VechEEs4_0B6_
FN:271,_RNCINvNtCs9svORWNbXMv_13weaveback_api3mcp7run_mcpINtNtNtCshbt5Cx3aOt7_3std2io6cursor6CursorReEQINtNtCsjjC6uJeAzJn_5alloc3vec3VechEEs5_0B6_
FN:272,_RNCINvNtCs9svORWNbXMv_13weaveback_api3mcp7run_mcpINtNtNtCshbt5Cx3aOt7_3std2io6cursor6CursorReEQINtNtCsjjC6uJeAzJn_5alloc3vec3VechEEs6_0B6_
FN:299,_RNCINvNtCs9svORWNbXMv_13weaveback_api3mcp7run_mcpINtNtNtCshbt5Cx3aOt7_3std2io6cursor6CursorReEQINtNtCsjjC6uJeAzJn_5alloc3vec3VechEEs7_0B6_
FN:300,_RNCINvNtCs9svORWNbXMv_13weaveback_api3mcp7run_mcpINtNtNtCshbt5Cx3aOt7_3std2io6cursor6CursorReEQINtNtCsjjC6uJeAzJn_5alloc3vec3VechEEs8_0B6_
FN:302,_RNCINvNtCs9svORWNbXMv_13weaveback_api3mcp7run_mcpINtNtNtCshbt5Cx3aOt7_3std2io6cursor6CursorReEQINtNtCsjjC6uJeAzJn_5alloc3vec3VechEEs9_0B6_
FN:583,_RNCINvNtCs9svORWNbXMv_13weaveback_api3mcp7run_mcpINtNtNtCshbt5Cx3aOt7_3std2io6cursor6CursorReEQINtNtCsjjC6uJeAzJn_5alloc3vec3VechEEsA_0B6_
FN:584,_RNCINvNtCs9svORWNbXMv_13weaveback_api3mcp7run_mcpINtNtNtCshbt5Cx3aOt7_3std2io6cursor6CursorReEQINtNtCsjjC6uJeAzJn_5alloc3vec3VechEEsB_0B6_
FN:585,_RNCINvNtCs9svORWNbXMv_13weaveback_api3mcp7run_mcpINtNtNtCshbt5Cx3aOt7_3std2io6cursor6CursorReEQINtNtCsjjC6uJeAzJn_5alloc3vec3VechEEsC_0B6_
FN:592,_RNCINvNtCs9svORWNbXMv_13weaveback_api3mcp7run_mcpINtNtNtCshbt5Cx3aOt7_3std2io6cursor6CursorReEQINtNtCsjjC6uJeAzJn_5alloc3vec3VechEEsD_0B6_
FN:624,_RNCINvNtCs9svORWNbXMv_13weaveback_api3mcp7run_mcpINtNtNtCshbt5Cx3aOt7_3std2io6cursor6CursorReEQINtNtCsjjC6uJeAzJn_5alloc3vec3VechEEsE_0B6_
FN:630,_RNCINvNtCs9svORWNbXMv_13weaveback_api3mcp7run_mcpINtNtNtCshbt5Cx3aOt7_3std2io6cursor6CursorReEQINtNtCsjjC6uJeAzJn_5alloc3vec3VechEEsF_0B6_
FN:658,_RNCINvNtCs9svORWNbXMv_13weaveback_api3mcp7run_mcpINtNtNtCshbt5Cx3aOt7_3std2io6cursor6CursorReEQINtNtCsjjC6uJeAzJn_5alloc3vec3VechEEsG_0B6_
FN:664,_RNCINvNtCs9svORWNbXMv_13weaveback_api3mcp7run_mcpINtNtNtCshbt5Cx3aOt7_3std2io6cursor6CursorReEQINtNtCsjjC6uJeAzJn_5alloc3vec3VechEEsH_0B6_
FN:680,_RNCINvNtCs9svORWNbXMv_13weaveback_api3mcp7run_mcpINtNtNtCshbt5Cx3aOt7_3std2io6cursor6CursorReEQINtNtCsjjC6uJeAzJn_5alloc3vec3VechEEsI_0B6_
FN:681,_RNCINvNtCs9svORWNbXMv_13weaveback_api3mcp7run_mcpINtNtNtCshbt5Cx3aOt7_3std2io6cursor6CursorReEQINtNtCsjjC6uJeAzJn_5alloc3vec3VechEEsJ_0B6_
FN:688,_RNCINvNtCs9svORWNbXMv_13weaveback_api3mcp7run_mcpINtNtNtCshbt5Cx3aOt7_3std2io6cursor6CursorReEQINtNtCsjjC6uJeAzJn_5alloc3vec3VechEEsK_0B6_
FN:689,_RNCINvNtCs9svORWNbXMv_13weaveback_api3mcp7run_mcpINtNtNtCshbt5Cx3aOt7_3std2io6cursor6CursorReEQINtNtCsjjC6uJeAzJn_5alloc3vec3VechEEsL_0B6_
FN:698,_RNCINvNtCs9svORWNbXMv_13weaveback_api3mcp7run_mcpINtNtNtCshbt5Cx3aOt7_3std2io6cursor6CursorReEQINtNtCsjjC6uJeAzJn_5alloc3vec3VechEEsM_0B6_
FN:720,_RNCINvNtCs9svORWNbXMv_13weaveback_api3mcp7run_mcpINtNtNtCshbt5Cx3aOt7_3std2io6cursor6CursorReEQINtNtCsjjC6uJeAzJn_5alloc3vec3VechEEsN_0B6_
FN:721,_RNCINvNtCs9svORWNbXMv_13weaveback_api3mcp7run_mcpINtNtNtCshbt5Cx3aOt7_3std2io6cursor6CursorReEQINtNtCsjjC6uJeAzJn_5alloc3vec3VechEEsO_0B6_
FN:731,_RNCINvNtCs9svORWNbXMv_13weaveback_api3mcp7run_mcpINtNtNtCshbt5Cx3aOt7_3std2io6cursor6CursorReEQINtNtCsjjC6uJeAzJn_5alloc3vec3VechEEsP_0B6_
FN:746,_RNCINvNtCs9svORWNbXMv_13weaveback_api3mcp7run_mcpINtNtNtCshbt5Cx3aOt7_3std2io6cursor6CursorReEQINtNtCsjjC6uJeAzJn_5alloc3vec3VechEEsQ_0B6_
FN:747,_RNCINvNtCs9svORWNbXMv_13weaveback_api3mcp7run_mcpINtNtNtCshbt5Cx3aOt7_3std2io6cursor6CursorReEQINtNtCsjjC6uJeAzJn_5alloc3vec3VechEEsR_0B6_
FN:260,_RNCINvNtCs9svORWNbXMv_13weaveback_api3mcp7run_mcpINtNtNtCshbt5Cx3aOt7_3std2io6cursor6CursorReEQINtNtCsjjC6uJeAzJn_5alloc3vec3VechEEs_0B6_
FN:323,_RNCINvNtCs9svORWNbXMv_13weaveback_api3mcp7run_mcpINtNtNtCshbt5Cx3aOt7_3std2io6cursor6CursorReEQINtNtCsjjC6uJeAzJn_5alloc3vec3VechEEsa_0B6_
FN:324,_RNCINvNtCs9svORWNbXMv_13weaveback_api3mcp7run_mcpINtNtNtCshbt5Cx3aOt7_3std2io6cursor6CursorReEQINtNtCsjjC6uJeAzJn_5alloc3vec3VechEEsb_0B6_
FN:325,_RNCINvNtCs9svORWNbXMv_13weaveback_api3mcp7run_mcpINtNtNtCshbt5Cx3aOt7_3std2io6cursor6CursorReEQINtNtCsjjC6uJeAzJn_5alloc3vec3VechEEsc_0B6_
FN:326,_RNCINvNtCs9svORWNbXMv_13weaveback_api3mcp7run_mcpINtNtNtCshbt5Cx3aOt7_3std2io6cursor6CursorReEQINtNtCsjjC6uJeAzJn_5alloc3vec3VechEEsd_0B6_
FN:327,_RNCINvNtCs9svORWNbXMv_13weaveback_api3mcp7run_mcpINtNtNtCshbt5Cx3aOt7_3std2io6cursor6CursorReEQINtNtCsjjC6uJeAzJn_5alloc3vec3VechEEse_0B6_
FN:328,_RNCINvNtCs9svORWNbXMv_13weaveback_api3mcp7run_mcpINtNtNtCshbt5Cx3aOt7_3std2io6cursor6CursorReEQINtNtCsjjC6uJeAzJn_5alloc3vec3VechEEsf_0B6_
FN:330,_RNCINvNtCs9svORWNbXMv_13weaveback_api3mcp7run_mcpINtNtNtCshbt5Cx3aOt7_3std2io6cursor6CursorReEQINtNtCsjjC6uJeAzJn_5alloc3vec3VechEEsg_0B6_
FN:333,_RNCINvNtCs9svORWNbXMv_13weaveback_api3mcp7run_mcpINtNtNtCshbt5Cx3aOt7_3std2io6cursor6CursorReEQINtNtCsjjC6uJeAzJn_5alloc3vec3VechEEsh_0B6_
FN:334,_RNCINvNtCs9svORWNbXMv_13weaveback_api3mcp7run_mcpINtNtNtCshbt5Cx3aOt7_3std2io6cursor6CursorReEQINtNtCsjjC6uJeAzJn_5alloc3vec3VechEEsi_0B6_
FN:335,_RNCINvNtCs9svORWNbXMv_13weaveback_api3mcp7run_mcpINtNtNtCshbt5Cx3aOt7_3std2io6cursor6CursorReEQINtNtCsjjC6uJeAzJn_5alloc3vec3VechEEsj_0B6_
FN:392,_RNCINvNtCs9svORWNbXMv_13weaveback_api3mcp7run_mcpINtNtNtCshbt5Cx3aOt7_3std2io6cursor6CursorReEQINtNtCsjjC6uJeAzJn_5alloc3vec3VechEEsk_0B6_
FN:393,_RNCINvNtCs9svORWNbXMv_13weaveback_api3mcp7run_mcpINtNtNtCshbt5Cx3aOt7_3std2io6cursor6CursorReEQINtNtCsjjC6uJeAzJn_5alloc3vec3VechEEsl_0B6_
FN:394,_RNCINvNtCs9svORWNbXMv_13weaveback_api3mcp7run_mcpINtNtNtCshbt5Cx3aOt7_3std2io6cursor6CursorReEQINtNtCsjjC6uJeAzJn_5alloc3vec3VechEEsm_0B6_
FN:419,_RNCINvNtCs9svORWNbXMv_13weaveback_api3mcp7run_mcpINtNtNtCshbt5Cx3aOt7_3std2io6cursor6CursorReEQINtNtCsjjC6uJeAzJn_5alloc3vec3VechEEsn_0B6_
FN:420,_RNCINvNtCs9svORWNbXMv_13weaveback_api3mcp7run_mcpINtNtNtCshbt5Cx3aOt7_3std2io6cursor6CursorReEQINtNtCsjjC6uJeAzJn_5alloc3vec3VechEEso_0B6_
FN:430,_RNCINvNtCs9svORWNbXMv_13weaveback_api3mcp7run_mcpINtNtNtCshbt5Cx3aOt7_3std2io6cursor6CursorReEQINtNtCsjjC6uJeAzJn_5alloc3vec3VechEEsp_0B6_
FN:448,_RNCINvNtCs9svORWNbXMv_13weaveback_api3mcp7run_mcpINtNtNtCshbt5Cx3aOt7_3std2io6cursor6CursorReEQINtNtCsjjC6uJeAzJn_5alloc3vec3VechEEsq_0B6_
FN:462,_RNCINvNtCs9svORWNbXMv_13weaveback_api3mcp7run_mcpINtNtNtCshbt5Cx3aOt7_3std2io6cursor6CursorReEQINtNtCsjjC6uJeAzJn_5alloc3vec3VechEEsr_0B6_
FN:479,_RNCINvNtCs9svORWNbXMv_13weaveback_api3mcp7run_mcpINtNtNtCshbt5Cx3aOt7_3std2io6cursor6CursorReEQINtNtCsjjC6uJeAzJn_5alloc3vec3VechEEss_0B6_
FN:480,_RNCINvNtCs9svORWNbXMv_13weaveback_api3mcp7run_mcpINtNtNtCshbt5Cx3aOt7_3std2io6cursor6CursorReEQINtNtCsjjC6uJeAzJn_5alloc3vec3VechEEst_0B6_
FN:481,_RNCINvNtCs9svORWNbXMv_13weaveback_api3mcp7run_mcpINtNtNtCshbt5Cx3aOt7_3std2io6cursor6CursorReEQINtNtCsjjC6uJeAzJn_5alloc3vec3VechEEsu_0B6_
FN:488,_RNCINvNtCs9svORWNbXMv_13weaveback_api3mcp7run_mcpINtNtNtCshbt5Cx3aOt7_3std2io6cursor6CursorReEQINtNtCsjjC6uJeAzJn_5alloc3vec3VechEEsv_0B6_
FN:531,_RNCINvNtCs9svORWNbXMv_13weaveback_api3mcp7run_mcpINtNtNtCshbt5Cx3aOt7_3std2io6cursor6CursorReEQINtNtCsjjC6uJeAzJn_5alloc3vec3VechEEsw_0B6_
FN:532,_RNCINvNtCs9svORWNbXMv_13weaveback_api3mcp7run_mcpINtNtNtCshbt5Cx3aOt7_3std2io6cursor6CursorReEQINtNtCsjjC6uJeAzJn_5alloc3vec3VechEEsx_0B6_
FN:533,_RNCINvNtCs9svORWNbXMv_13weaveback_api3mcp7run_mcpINtNtNtCshbt5Cx3aOt7_3std2io6cursor6CursorReEQINtNtCsjjC6uJeAzJn_5alloc3vec3VechEEsy_0B6_
FN:540,_RNCINvNtCs9svORWNbXMv_13weaveback_api3mcp7run_mcpINtNtNtCshbt5Cx3aOt7_3std2io6cursor6CursorReEQINtNtCsjjC6uJeAzJn_5alloc3vec3VechEEsz_0B6_
FN:300,_RNCNCINvNtCs9svORWNbXMv_13weaveback_api3mcp7run_mcpINtNtNtCshbt5Cx3aOt7_3std2io6cursor6CursorNtNtCsjjC6uJeAzJn_5alloc6string6StringEQINtNtB1x_3vec3VechEEs8_00B8_
FN:300,_RNCNCINvNtCs9svORWNbXMv_13weaveback_api3mcp7run_mcpINtNtNtCshbt5Cx3aOt7_3std2io6cursor6CursorReEQINtNtCsjjC6uJeAzJn_5alloc3vec3VechEEs8_00B8_
FN:300,_RNCNCNCINvNtCs9svORWNbXMv_13weaveback_api3mcp7run_mcpINtNtNtCshbt5Cx3aOt7_3std2io6cursor6CursorNtNtCsjjC6uJeAzJn_5alloc6string6StringEQINtNtB1z_3vec3VechEEs8_000Ba_
FN:300,_RNCNCNCINvNtCs9svORWNbXMv_13weaveback_api3mcp7run_mcpINtNtNtCshbt5Cx3aOt7_3std2io6cursor6CursorReEQINtNtCsjjC6uJeAzJn_5alloc3vec3VechEEs8_000Ba_
FN:22,_RNCNvNtCs9svORWNbXMv_13weaveback_api3mcp16get_or_spawn_lsp0B5_
FN:32,_RNCNvNtCs9svORWNbXMv_13weaveback_api3mcp16get_or_spawn_lsps0_0B5_
FN:34,_RNCNvNtCs9svORWNbXMv_13weaveback_api3mcp16get_or_spawn_lsps1_0B5_
FN:30,_RNCNvNtCs9svORWNbXMv_13weaveback_api3mcp16get_or_spawn_lsps_0B5_
FN:908,_RNvXs_NtNtCs9svORWNbXMv_13weaveback_api3mcp5testsNtB4_12McpWorkspaceNtNtNtCs9yMf5VoQcqS_4core3ops4drop4Drop4drop
FN:17,_RNvNtCs9svORWNbXMv_13weaveback_api3mcp16get_or_spawn_lsp
FNDA:0,_RNCNvNtCsaY2CvWUtqiY_13weaveback_api3mcp16get_or_spawn_lsp0B5_
FNDA:0,_RNCNvNtCsaY2CvWUtqiY_13weaveback_api3mcp16get_or_spawn_lsps0_0B5_
FNDA:0,_RNCNvNtCsaY2CvWUtqiY_13weaveback_api3mcp16get_or_spawn_lsps1_0B5_
FNDA:0,_RNCNvNtCsaY2CvWUtqiY_13weaveback_api3mcp16get_or_spawn_lsps_0B5_
FNDA:0,_RNvNtNtCs9svORWNbXMv_13weaveback_api3mcp5tests27mcp_chunk_context_not_found
FNDA:0,_RNCNvNtNtCs9svORWNbXMv_13weaveback_api3mcp5testss_28mcp_apply_fix_updates_source0B7_
FNDA:0,_RNCNvNtNtCs9svORWNbXMv_13weaveback_api3mcp5testss_29mcp_apply_back_updates_source0B7_
FNDA:0,_RNCNvNtNtCs9svORWNbXMv_13weaveback_api3mcp5testss_33mcp_search_returns_seeded_results0B7_
FNDA:0,_RNCNvNtNtCs9svORWNbXMv_13weaveback_api3mcp5testss_33mcp_trace_returns_seeded_location0B7_
FNDA:6,_RNCNvNtNtCs9svORWNbXMv_13weaveback_api3mcp5testss_39tools_list_contains_expected_tool_names0B7_
FNDA:5,_RNvMNtNtCs9svORWNbXMv_13weaveback_api3mcp5testsNtB2_12McpWorkspace10write_file
FNDA:42,_RNvMNtNtCs9svORWNbXMv_13weaveback_api3mcp5testsNtB2_12McpWorkspace3new
FNDA:63,_RNvMNtNtCs9svORWNbXMv_13weaveback_api3mcp5testsNtB2_12McpWorkspace7db_path
FNDA:45,_RNvMNtNtCs9svORWNbXMv_13weaveback_api3mcp5testsNtB2_12McpWorkspace7gen_dir
FNDA:17,_RNvMNtNtCs9svORWNbXMv_13weaveback_api3mcp5testsNtB2_12McpWorkspace7open_db
FNDA:4,_RNvNtNtCs9svORWNbXMv_13weaveback_api3mcp5tests11mcp_rs_path
FNDA:4,_RNvNtNtCs9svORWNbXMv_13weaveback_api3mcp5tests13lsp_mcp_drive
FNDA:4,_RNvNtNtCs9svORWNbXMv_13weaveback_api3mcp5tests18mcp_workspace_root
FNDA:42,_RNvNtNtCs9svORWNbXMv_13weaveback_api3mcp5tests9mcp_drive
FNDA:1,_RNvNtNtCs9svORWNbXMv_13weaveback_api3mcp5testss_17test_run_mcp_loop
FNDA:1,_RNvNtNtCs9svORWNbXMv_13weaveback_api3mcp5testss_23mcp_search_success_path
FNDA:1,_RNvNtNtCs9svORWNbXMv_13weaveback_api3mcp5testss_26mcp_apply_fix_invalid_args
FNDA:1,_RNvNtNtCs9svORWNbXMv_13weaveback_api3mcp5testss_26mcp_coverage_reports_stats
FNDA:1,_RNvNtNtCs9svORWNbXMv_13weaveback_api3mcp5testss_27mcp_apply_back_success_path
FNDA:1,_RNvNtNtCs9svORWNbXMv_13weaveback_api3mcp5testss_27mcp_empty_lines_are_skipped
FNDA:1,_RNvNtNtCs9svORWNbXMv_13weaveback_api3mcp5testss_27mcp_protocol_full_handshake
FNDA:1,_RNvNtNtCs9svORWNbXMv_13weaveback_api3mcp5testss_28mcp_apply_fix_updates_source
FNDA:1,_RNvNtNtCs9svORWNbXMv_13weaveback_api3mcp5testss_28mcp_list_chunks_success_path
FNDA:1,_RNvNtNtCs9svORWNbXMv_13weaveback_api3mcp5testss_28mcp_lsp_symbols_success_path
FNDA:1,_RNvNtNtCs9svORWNbXMv_13weaveback_api3mcp5testss_29mcp_apply_back_updates_source
FNDA:1,_RNvNtNtCs9svORWNbXMv_13weaveback_api3mcp5testss_29mcp_lsp_hover_reaches_handler
FNDA:1,_RNvNtNtCs9svORWNbXMv_13weaveback_api3mcp5testss_30mcp_lsp_tools_missing_db_error
FNDA:1,_RNvNtNtCs9svORWNbXMv_13weaveback_api3mcp5testss_30mcp_unknown_tool_returns_error
FNDA:1,_RNvNtNtCs9svORWNbXMv_13weaveback_api3mcp5testss_31mcp_find_chunk_empty_name_error
FNDA:1,_RNvNtNtCs9svORWNbXMv_13weaveback_api3mcp5testss_31mcp_lsp_symbols_reaches_handler
FNDA:1,_RNvNtNtCs9svORWNbXMv_13weaveback_api3mcp5testss_33mcp_list_tags_returns_seeded_tags
FNDA:1,_RNvNtNtCs9svORWNbXMv_13weaveback_api3mcp5testss_33mcp_malformed_and_unknown_methods
FNDA:1,_RNvNtNtCs9svORWNbXMv_13weaveback_api3mcp5testss_33mcp_search_returns_seeded_results
FNDA:1,_RNvNtNtCs9svORWNbXMv_13weaveback_api3mcp5testss_33mcp_trace_returns_seeded_location
FNDA:1,_RNvNtNtCs9svORWNbXMv_13weaveback_api3mcp5testss_34mcp_lsp_definition_reaches_handler
FNDA:1,_RNvNtNtCs9svORWNbXMv_13weaveback_api3mcp5testss_34mcp_lsp_references_reaches_handler
FNDA:1,_RNvNtNtCs9svORWNbXMv_13weaveback_api3mcp5testss_34mcp_trace_missing_db_returns_error
FNDA:1,_RNvNtNtCs9svORWNbXMv_13weaveback_api3mcp5testss_35mcp_find_chunk_returns_seeded_chunk
FNDA:1,_RNvNtNtCs9svORWNbXMv_13weaveback_api3mcp5testss_35mcp_lsp_unsupported_extension_error
FNDA:1,_RNvNtNtCs9svORWNbXMv_13weaveback_api3mcp5testss_35mcp_search_missing_db_returns_error
FNDA:1,_RNvNtNtCs9svORWNbXMv_13weaveback_api3mcp5testss_36mcp_list_chunks_returns_seeded_chunk
FNDA:1,_RNvNtNtCs9svORWNbXMv_13weaveback_api3mcp5testss_36mcp_search_empty_query_returns_error
FNDA:1,_RNvNtNtCs9svORWNbXMv_13weaveback_api3mcp5testss_38mcp_list_tags_missing_db_returns_error
FNDA:1,_RNvNtNtCs9svORWNbXMv_13weaveback_api3mcp5testss_39mcp_chunk_context_returns_full_metadata
FNDA:1,_RNvNtNtCs9svORWNbXMv_13weaveback_api3mcp5testss_39mcp_coverage_missing_lcov_returns_error
FNDA:1,_RNvNtNtCs9svORWNbXMv_13weaveback_api3mcp5testss_39mcp_find_chunk_empty_name_returns_error
FNDA:1,_RNvNtNtCs9svORWNbXMv_13weaveback_api3mcp5testss_39mcp_notifications_initialized_is_silent
FNDA:1,_RNvNtNtCs9svORWNbXMv_13weaveback_api3mcp5testss_39tools_list_contains_expected_tool_names
FNDA:1,_RNvNtNtCs9svORWNbXMv_13weaveback_api3mcp5testss_40mcp_apply_back_missing_db_sends_response
FNDA:1,_RNvNtNtCs9svORWNbXMv_13weaveback_api3mcp5testss_40mcp_list_chunks_missing_db_returns_error
FNDA:1,_RNvNtNtCs9svORWNbXMv_13weaveback_api3mcp5testss_41mcp_apply_fix_zero_src_line_returns_error
FNDA:1,_RNvNtNtCs9svORWNbXMv_13weaveback_api3mcp5testss_41mcp_trace_missing_arguments_returns_error
FNDA:1,_RNvNtNtCs9svORWNbXMv_13weaveback_api3mcp5testss_42mcp_apply_fix_inverted_range_returns_error
FNDA:1,_RNvNtNtCs9svORWNbXMv_13weaveback_api3mcp5testss_42mcp_chunk_context_empty_args_returns_error
FNDA:1,_RNvNtNtCs9svORWNbXMv_13weaveback_api3mcp5testss_46mcp_list_tags_returns_empty_array_for_fresh_db
FNDA:1,_RNvNtNtCs9svORWNbXMv_13weaveback_api3mcp5testss_47mcp_invalid_json_is_skipped_and_valid_continues
FNDA:1,_RNvNtNtCs9svORWNbXMv_13weaveback_api3mcp5testss_52get_or_spawn_lsp_unsupported_extension_returns_error
FNDA:1,_RNvNtNtCs9svORWNbXMv_13weaveback_api3mcp5testss_52mcp_list_resources_and_prompts_are_empty_but_covered
FNDA:1,_RNvNtNtCs9svORWNbXMv_13weaveback_api3mcp5testss_54mcp_list_chunks_with_file_filter_returns_only_matching
FNDA:18,_RINvNtCs9svORWNbXMv_13weaveback_api3mcp10send_errorQINtNtCsjjC6uJeAzJn_5alloc3vec3VechEEB4_
FNDA:44,_RINvNtCs9svORWNbXMv_13weaveback_api3mcp13send_responseQINtNtCsjjC6uJeAzJn_5alloc3vec3VechEEB4_
FNDA:42,_RINvNtCs9svORWNbXMv_13weaveback_api3mcp7run_mcpINtNtNtCshbt5Cx3aOt7_3std2io6cursor6CursorNtNtCsjjC6uJeAzJn_5alloc6string6StringEQINtNtB1t_3vec3VechEEB4_
FNDA:1,_RINvNtCs9svORWNbXMv_13weaveback_api3mcp7run_mcpINtNtNtCshbt5Cx3aOt7_3std2io6cursor6CursorReEQINtNtCsjjC6uJeAzJn_5alloc3vec3VechEEB4_
FNDA:19,_RINvNtCs9svORWNbXMv_13weaveback_api3mcp9send_textQINtNtCsjjC6uJeAzJn_5alloc3vec3VechEEB4_
FNDA:45,_RNCINvNtCs9svORWNbXMv_13weaveback_api3mcp7run_mcpINtNtNtCshbt5Cx3aOt7_3std2io6cursor6CursorNtNtCsjjC6uJeAzJn_5alloc6string6StringEQINtNtB1v_3vec3VechEE0B6_
FNDA:37,_RNCINvNtCs9svORWNbXMv_13weaveback_api3mcp7run_mcpINtNtNtCshbt5Cx3aOt7_3std2io6cursor6CursorNtNtCsjjC6uJeAzJn_5alloc6string6StringEQINtNtB1v_3vec3VechEEs0_0B6_
FNDA:37,_RNCINvNtCs9svORWNbXMv_13weaveback_api3mcp7run_mcpINtNtNtCshbt5Cx3aOt7_3std2io6cursor6CursorNtNtCsjjC6uJeAzJn_5alloc6string6StringEQINtNtB1v_3vec3VechEEs1_0B6_
FNDA:37,_RNCINvNtCs9svORWNbXMv_13weaveback_api3mcp7run_mcpINtNtNtCshbt5Cx3aOt7_3std2io6cursor6CursorNtNtCsjjC6uJeAzJn_5alloc6string6StringEQINtNtB1v_3vec3VechEEs2_0B6_
FNDA:35,_RNCINvNtCs9svORWNbXMv_13weaveback_api3mcp7run_mcpINtNtNtCshbt5Cx3aOt7_3std2io6cursor6CursorNtNtCsjjC6uJeAzJn_5alloc6string6StringEQINtNtB1v_3vec3VechEEs3_0B6_
FNDA:2,_RNCINvNtCs9svORWNbXMv_13weaveback_api3mcp7run_mcpINtNtNtCshbt5Cx3aOt7_3std2io6cursor6CursorNtNtCsjjC6uJeAzJn_5alloc6string6StringEQINtNtB1v_3vec3VechEEs4_0B6_
FNDA:2,_RNCINvNtCs9svORWNbXMv_13weaveback_api3mcp7run_mcpINtNtNtCshbt5Cx3aOt7_3std2io6cursor6CursorNtNtCsjjC6uJeAzJn_5alloc6string6StringEQINtNtB1v_3vec3VechEEs5_0B6_
FNDA:0,_RNCINvNtCs9svORWNbXMv_13weaveback_api3mcp7run_mcpINtNtNtCshbt5Cx3aOt7_3std2io6cursor6CursorNtNtCsjjC6uJeAzJn_5alloc6string6StringEQINtNtB1v_3vec3VechEEs6_0B6_
FNDA:1,_RNCINvNtCs9svORWNbXMv_13weaveback_api3mcp7run_mcpINtNtNtCshbt5Cx3aOt7_3std2io6cursor6CursorNtNtCsjjC6uJeAzJn_5alloc6string6StringEQINtNtB1v_3vec3VechEEs7_0B6_
FNDA:1,_RNCINvNtCs9svORWNbXMv_13weaveback_api3mcp7run_mcpINtNtNtCshbt5Cx3aOt7_3std2io6cursor6CursorNtNtCsjjC6uJeAzJn_5alloc6string6StringEQINtNtB1v_3vec3VechEEs8_0B6_
FNDA:1,_RNCINvNtCs9svORWNbXMv_13weaveback_api3mcp7run_mcpINtNtNtCshbt5Cx3aOt7_3std2io6cursor6CursorNtNtCsjjC6uJeAzJn_5alloc6string6StringEQINtNtB1v_3vec3VechEEs9_0B6_
FNDA:1,_RNCINvNtCs9svORWNbXMv_13weaveback_api3mcp7run_mcpINtNtNtCshbt5Cx3aOt7_3std2io6cursor6CursorNtNtCsjjC6uJeAzJn_5alloc6string6StringEQINtNtB1v_3vec3VechEEsA_0B6_
FNDA:1,_RNCINvNtCs9svORWNbXMv_13weaveback_api3mcp7run_mcpINtNtNtCshbt5Cx3aOt7_3std2io6cursor6CursorNtNtCsjjC6uJeAzJn_5alloc6string6StringEQINtNtB1v_3vec3VechEEsB_0B6_
FNDA:1,_RNCINvNtCs9svORWNbXMv_13weaveback_api3mcp7run_mcpINtNtNtCshbt5Cx3aOt7_3std2io6cursor6CursorNtNtCsjjC6uJeAzJn_5alloc6string6StringEQINtNtB1v_3vec3VechEEsC_0B6_
FNDA:1,_RNCINvNtCs9svORWNbXMv_13weaveback_api3mcp7run_mcpINtNtNtCshbt5Cx3aOt7_3std2io6cursor6CursorNtNtCsjjC6uJeAzJn_5alloc6string6StringEQINtNtB1v_3vec3VechEEsD_0B6_
FNDA:0,_RNCINvNtCs9svORWNbXMv_13weaveback_api3mcp7run_mcpINtNtNtCshbt5Cx3aOt7_3std2io6cursor6CursorNtNtCsjjC6uJeAzJn_5alloc6string6StringEQINtNtB1v_3vec3VechEEsE_0B6_
FNDA:0,_RNCINvNtCs9svORWNbXMv_13weaveback_api3mcp7run_mcpINtNtNtCshbt5Cx3aOt7_3std2io6cursor6CursorNtNtCsjjC6uJeAzJn_5alloc6string6StringEQINtNtB1v_3vec3VechEEsF_0B6_
FNDA:2,_RNCINvNtCs9svORWNbXMv_13weaveback_api3mcp7run_mcpINtNtNtCshbt5Cx3aOt7_3std2io6cursor6CursorNtNtCsjjC6uJeAzJn_5alloc6string6StringEQINtNtB1v_3vec3VechEEsG_0B6_
FNDA:2,_RNCINvNtCs9svORWNbXMv_13weaveback_api3mcp7run_mcpINtNtNtCshbt5Cx3aOt7_3std2io6cursor6CursorNtNtCsjjC6uJeAzJn_5alloc6string6StringEQINtNtB1v_3vec3VechEEsH_0B6_
FNDA:4,_RNCINvNtCs9svORWNbXMv_13weaveback_api3mcp7run_mcpINtNtNtCshbt5Cx3aOt7_3std2io6cursor6CursorNtNtCsjjC6uJeAzJn_5alloc6string6StringEQINtNtB1v_3vec3VechEEsI_0B6_
FNDA:4,_RNCINvNtCs9svORWNbXMv_13weaveback_api3mcp7run_mcpINtNtNtCshbt5Cx3aOt7_3std2io6cursor6CursorNtNtCsjjC6uJeAzJn_5alloc6string6StringEQINtNtB1v_3vec3VechEEsJ_0B6_
FNDA:3,_RNCINvNtCs9svORWNbXMv_13weaveback_api3mcp7run_mcpINtNtNtCshbt5Cx3aOt7_3std2io6cursor6CursorNtNtCsjjC6uJeAzJn_5alloc6string6StringEQINtNtB1v_3vec3VechEEsK_0B6_
FNDA:0,_RNCINvNtCs9svORWNbXMv_13weaveback_api3mcp7run_mcpINtNtNtCshbt5Cx3aOt7_3std2io6cursor6CursorNtNtCsjjC6uJeAzJn_5alloc6string6StringEQINtNtB1v_3vec3VechEEsL_0B6_
FNDA:1,_RNCINvNtCs9svORWNbXMv_13weaveback_api3mcp7run_mcpINtNtNtCshbt5Cx3aOt7_3std2io6cursor6CursorNtNtCsjjC6uJeAzJn_5alloc6string6StringEQINtNtB1v_3vec3VechEEsM_0B6_
FNDA:3,_RNCINvNtCs9svORWNbXMv_13weaveback_api3mcp7run_mcpINtNtNtCshbt5Cx3aOt7_3std2io6cursor6CursorNtNtCsjjC6uJeAzJn_5alloc6string6StringEQINtNtB1v_3vec3VechEEsN_0B6_
FNDA:0,_RNCINvNtCs9svORWNbXMv_13weaveback_api3mcp7run_mcpINtNtNtCshbt5Cx3aOt7_3std2io6cursor6CursorNtNtCsjjC6uJeAzJn_5alloc6string6StringEQINtNtB1v_3vec3VechEEsO_0B6_
FNDA:1,_RNCINvNtCs9svORWNbXMv_13weaveback_api3mcp7run_mcpINtNtNtCshbt5Cx3aOt7_3std2io6cursor6CursorNtNtCsjjC6uJeAzJn_5alloc6string6StringEQINtNtB1v_3vec3VechEEsP_0B6_
FNDA:2,_RNCINvNtCs9svORWNbXMv_13weaveback_api3mcp7run_mcpINtNtNtCshbt5Cx3aOt7_3std2io6cursor6CursorNtNtCsjjC6uJeAzJn_5alloc6string6StringEQINtNtB1v_3vec3VechEEsQ_0B6_
FNDA:2,_RNCINvNtCs9svORWNbXMv_13weaveback_api3mcp7run_mcpINtNtNtCshbt5Cx3aOt7_3std2io6cursor6CursorNtNtCsjjC6uJeAzJn_5alloc6string6StringEQINtNtB1v_3vec3VechEEsR_0B6_
FNDA:37,_RNCINvNtCs9svORWNbXMv_13weaveback_api3mcp7run_mcpINtNtNtCshbt5Cx3aOt7_3std2io6cursor6CursorNtNtCsjjC6uJeAzJn_5alloc6string6StringEQINtNtB1v_3vec3VechEEs_0B6_
FNDA:4,_RNCINvNtCs9svORWNbXMv_13weaveback_api3mcp7run_mcpINtNtNtCshbt5Cx3aOt7_3std2io6cursor6CursorNtNtCsjjC6uJeAzJn_5alloc6string6StringEQINtNtB1v_3vec3VechEEsa_0B6_
FNDA:3,_RNCINvNtCs9svORWNbXMv_13weaveback_api3mcp7run_mcpINtNtNtCshbt5Cx3aOt7_3std2io6cursor6CursorNtNtCsjjC6uJeAzJn_5alloc6string6StringEQINtNtB1v_3vec3VechEEsb_0B6_
FNDA:1,_RNCINvNtCs9svORWNbXMv_13weaveback_api3mcp7run_mcpINtNtNtCshbt5Cx3aOt7_3std2io6cursor6CursorNtNtCsjjC6uJeAzJn_5alloc6string6StringEQINtNtB1v_3vec3VechEEsc_0B6_
FNDA:1,_RNCINvNtCs9svORWNbXMv_13weaveback_api3mcp7run_mcpINtNtNtCshbt5Cx3aOt7_3std2io6cursor6CursorNtNtCsjjC6uJeAzJn_5alloc6string6StringEQINtNtB1v_3vec3VechEEsd_0B6_
FNDA:0,_RNCINvNtCs9svORWNbXMv_13weaveback_api3mcp7run_mcpINtNtNtCshbt5Cx3aOt7_3std2io6cursor6CursorNtNtCsjjC6uJeAzJn_5alloc6string6StringEQINtNtB1v_3vec3VechEEse_0B6_
FNDA:0,_RNCINvNtCs9svORWNbXMv_13weaveback_api3mcp7run_mcpINtNtNtCshbt5Cx3aOt7_3std2io6cursor6CursorNtNtCsjjC6uJeAzJn_5alloc6string6StringEQINtNtB1v_3vec3VechEEsf_0B6_
FNDA:1,_RNCINvNtCs9svORWNbXMv_13weaveback_api3mcp7run_mcpINtNtNtCshbt5Cx3aOt7_3std2io6cursor6CursorNtNtCsjjC6uJeAzJn_5alloc6string6StringEQINtNtB1v_3vec3VechEEsg_0B6_
FNDA:3,_RNCINvNtCs9svORWNbXMv_13weaveback_api3mcp7run_mcpINtNtNtCshbt5Cx3aOt7_3std2io6cursor6CursorNtNtCsjjC6uJeAzJn_5alloc6string6StringEQINtNtB1v_3vec3VechEEsh_0B6_
FNDA:3,_RNCINvNtCs9svORWNbXMv_13weaveback_api3mcp7run_mcpINtNtNtCshbt5Cx3aOt7_3std2io6cursor6CursorNtNtCsjjC6uJeAzJn_5alloc6string6StringEQINtNtB1v_3vec3VechEEsi_0B6_
FNDA:3,_RNCINvNtCs9svORWNbXMv_13weaveback_api3mcp7run_mcpINtNtNtCshbt5Cx3aOt7_3std2io6cursor6CursorNtNtCsjjC6uJeAzJn_5alloc6string6StringEQINtNtB1v_3vec3VechEEsj_0B6_
FNDA:2,_RNCINvNtCs9svORWNbXMv_13weaveback_api3mcp7run_mcpINtNtNtCshbt5Cx3aOt7_3std2io6cursor6CursorNtNtCsjjC6uJeAzJn_5alloc6string6StringEQINtNtB1v_3vec3VechEEsk_0B6_
FNDA:2,_RNCINvNtCs9svORWNbXMv_13weaveback_api3mcp7run_mcpINtNtNtCshbt5Cx3aOt7_3std2io6cursor6CursorNtNtCsjjC6uJeAzJn_5alloc6string6StringEQINtNtB1v_3vec3VechEEsl_0B6_
FNDA:0,_RNCINvNtCs9svORWNbXMv_13weaveback_api3mcp7run_mcpINtNtNtCshbt5Cx3aOt7_3std2io6cursor6CursorNtNtCsjjC6uJeAzJn_5alloc6string6StringEQINtNtB1v_3vec3VechEEsm_0B6_
FNDA:4,_RNCINvNtCs9svORWNbXMv_13weaveback_api3mcp7run_mcpINtNtNtCshbt5Cx3aOt7_3std2io6cursor6CursorNtNtCsjjC6uJeAzJn_5alloc6string6StringEQINtNtB1v_3vec3VechEEsn_0B6_
FNDA:1,_RNCINvNtCs9svORWNbXMv_13weaveback_api3mcp7run_mcpINtNtNtCshbt5Cx3aOt7_3std2io6cursor6CursorNtNtCsjjC6uJeAzJn_5alloc6string6StringEQINtNtB1v_3vec3VechEEso_0B6_
FNDA:2,_RNCINvNtCs9svORWNbXMv_13weaveback_api3mcp7run_mcpINtNtNtCshbt5Cx3aOt7_3std2io6cursor6CursorNtNtCsjjC6uJeAzJn_5alloc6string6StringEQINtNtB1v_3vec3VechEEsp_0B6_
FNDA:3,_RNCINvNtCs9svORWNbXMv_13weaveback_api3mcp7run_mcpINtNtNtCshbt5Cx3aOt7_3std2io6cursor6CursorNtNtCsjjC6uJeAzJn_5alloc6string6StringEQINtNtB1v_3vec3VechEEsq_0B6_
FNDA:1,_RNCINvNtCs9svORWNbXMv_13weaveback_api3mcp7run_mcpINtNtNtCshbt5Cx3aOt7_3std2io6cursor6CursorNtNtCsjjC6uJeAzJn_5alloc6string6StringEQINtNtB1v_3vec3VechEEsr_0B6_
FNDA:3,_RNCINvNtCs9svORWNbXMv_13weaveback_api3mcp7run_mcpINtNtNtCshbt5Cx3aOt7_3std2io6cursor6CursorNtNtCsjjC6uJeAzJn_5alloc6string6StringEQINtNtB1v_3vec3VechEEss_0B6_
FNDA:3,_RNCINvNtCs9svORWNbXMv_13weaveback_api3mcp7run_mcpINtNtNtCshbt5Cx3aOt7_3std2io6cursor6CursorNtNtCsjjC6uJeAzJn_5alloc6string6StringEQINtNtB1v_3vec3VechEEst_0B6_
FNDA:3,_RNCINvNtCs9svORWNbXMv_13weaveback_api3mcp7run_mcpINtNtNtCshbt5Cx3aOt7_3std2io6cursor6CursorNtNtCsjjC6uJeAzJn_5alloc6string6StringEQINtNtB1v_3vec3VechEEsu_0B6_
FNDA:3,_RNCINvNtCs9svORWNbXMv_13weaveback_api3mcp7run_mcpINtNtNtCshbt5Cx3aOt7_3std2io6cursor6CursorNtNtCsjjC6uJeAzJn_5alloc6string6StringEQINtNtB1v_3vec3VechEEsv_0B6_
FNDA:1,_RNCINvNtCs9svORWNbXMv_13weaveback_api3mcp7run_mcpINtNtNtCshbt5Cx3aOt7_3std2io6cursor6CursorNtNtCsjjC6uJeAzJn_5alloc6string6StringEQINtNtB1v_3vec3VechEEsw_0B6_
FNDA:1,_RNCINvNtCs9svORWNbXMv_13weaveback_api3mcp7run_mcpINtNtNtCshbt5Cx3aOt7_3std2io6cursor6CursorNtNtCsjjC6uJeAzJn_5alloc6string6StringEQINtNtB1v_3vec3VechEEsx_0B6_
FNDA:1,_RNCINvNtCs9svORWNbXMv_13weaveback_api3mcp7run_mcpINtNtNtCshbt5Cx3aOt7_3std2io6cursor6CursorNtNtCsjjC6uJeAzJn_5alloc6string6StringEQINtNtB1v_3vec3VechEEsy_0B6_
FNDA:1,_RNCINvNtCs9svORWNbXMv_13weaveback_api3mcp7run_mcpINtNtNtCshbt5Cx3aOt7_3std2io6cursor6CursorNtNtCsjjC6uJeAzJn_5alloc6string6StringEQINtNtB1v_3vec3VechEEsz_0B6_
FNDA:2,_RNCINvNtCs9svORWNbXMv_13weaveback_api3mcp7run_mcpINtNtNtCshbt5Cx3aOt7_3std2io6cursor6CursorReEQINtNtCsjjC6uJeAzJn_5alloc3vec3VechEE0B6_
FNDA:0,_RNCINvNtCs9svORWNbXMv_13weaveback_api3mcp7run_mcpINtNtNtCshbt5Cx3aOt7_3std2io6cursor6CursorReEQINtNtCsjjC6uJeAzJn_5alloc3vec3VechEEs0_0B6_
FNDA:0,_RNCINvNtCs9svORWNbXMv_13weaveback_api3mcp7run_mcpINtNtNtCshbt5Cx3aOt7_3std2io6cursor6CursorReEQINtNtCsjjC6uJeAzJn_5alloc3vec3VechEEs1_0B6_
FNDA:0,_RNCINvNtCs9svORWNbXMv_13weaveback_api3mcp7run_mcpINtNtNtCshbt5Cx3aOt7_3std2io6cursor6CursorReEQINtNtCsjjC6uJeAzJn_5alloc3vec3VechEEs2_0B6_
FNDA:0,_RNCINvNtCs9svORWNbXMv_13weaveback_api3mcp7run_mcpINtNtNtCshbt5Cx3aOt7_3std2io6cursor6CursorReEQINtNtCsjjC6uJeAzJn_5alloc3vec3VechEEs3_0B6_
FNDA:0,_RNCINvNtCs9svORWNbXMv_13weaveback_api3mcp7run_mcpINtNtNtCshbt5Cx3aOt7_3std2io6cursor6CursorReEQINtNtCsjjC6uJeAzJn_5alloc3vec3VechEEs4_0B6_
FNDA:0,_RNCINvNtCs9svORWNbXMv_13weaveback_api3mcp7run_mcpINtNtNtCshbt5Cx3aOt7_3std2io6cursor6CursorReEQINtNtCsjjC6uJeAzJn_5alloc3vec3VechEEs5_0B6_
FNDA:0,_RNCINvNtCs9svORWNbXMv_13weaveback_api3mcp7run_mcpINtNtNtCshbt5Cx3aOt7_3std2io6cursor6CursorReEQINtNtCsjjC6uJeAzJn_5alloc3vec3VechEEs6_0B6_
FNDA:0,_RNCINvNtCs9svORWNbXMv_13weaveback_api3mcp7run_mcpINtNtNtCshbt5Cx3aOt7_3std2io6cursor6CursorReEQINtNtCsjjC6uJeAzJn_5alloc3vec3VechEEs7_0B6_
FNDA:0,_RNCINvNtCs9svORWNbXMv_13weaveback_api3mcp7run_mcpINtNtNtCshbt5Cx3aOt7_3std2io6cursor6CursorReEQINtNtCsjjC6uJeAzJn_5alloc3vec3VechEEs8_0B6_
FNDA:0,_RNCINvNtCs9svORWNbXMv_13weaveback_api3mcp7run_mcpINtNtNtCshbt5Cx3aOt7_3std2io6cursor6CursorReEQINtNtCsjjC6uJeAzJn_5alloc3vec3VechEEs9_0B6_
FNDA:0,_RNCINvNtCs9svORWNbXMv_13weaveback_api3mcp7run_mcpINtNtNtCshbt5Cx3aOt7_3std2io6cursor6CursorReEQINtNtCsjjC6uJeAzJn_5alloc3vec3VechEEsA_0B6_
FNDA:0,_RNCINvNtCs9svORWNbXMv_13weaveback_api3mcp7run_mcpINtNtNtCshbt5Cx3aOt7_3std2io6cursor6CursorReEQINtNtCsjjC6uJeAzJn_5alloc3vec3VechEEsB_0B6_
FNDA:0,_RNCINvNtCs9svORWNbXMv_13weaveback_api3mcp7run_mcpINtNtNtCshbt5Cx3aOt7_3std2io6cursor6CursorReEQINtNtCsjjC6uJeAzJn_5alloc3vec3VechEEsC_0B6_
FNDA:0,_RNCINvNtCs9svORWNbXMv_13weaveback_api3mcp7run_mcpINtNtNtCshbt5Cx3aOt7_3std2io6cursor6CursorReEQINtNtCsjjC6uJeAzJn_5alloc3vec3VechEEsD_0B6_
FNDA:0,_RNCINvNtCs9svORWNbXMv_13weaveback_api3mcp7run_mcpINtNtNtCshbt5Cx3aOt7_3std2io6cursor6CursorReEQINtNtCsjjC6uJeAzJn_5alloc3vec3VechEEsE_0B6_
FNDA:0,_RNCINvNtCs9svORWNbXMv_13weaveback_api3mcp7run_mcpINtNtNtCshbt5Cx3aOt7_3std2io6cursor6CursorReEQINtNtCsjjC6uJeAzJn_5alloc3vec3VechEEsF_0B6_
FNDA:0,_RNCINvNtCs9svORWNbXMv_13weaveback_api3mcp7run_mcpINtNtNtCshbt5Cx3aOt7_3std2io6cursor6CursorReEQINtNtCsjjC6uJeAzJn_5alloc3vec3VechEEsG_0B6_
FNDA:0,_RNCINvNtCs9svORWNbXMv_13weaveback_api3mcp7run_mcpINtNtNtCshbt5Cx3aOt7_3std2io6cursor6CursorReEQINtNtCsjjC6uJeAzJn_5alloc3vec3VechEEsH_0B6_
FNDA:0,_RNCINvNtCs9svORWNbXMv_13weaveback_api3mcp7run_mcpINtNtNtCshbt5Cx3aOt7_3std2io6cursor6CursorReEQINtNtCsjjC6uJeAzJn_5alloc3vec3VechEEsI_0B6_
FNDA:0,_RNCINvNtCs9svORWNbXMv_13weaveback_api3mcp7run_mcpINtNtNtCshbt5Cx3aOt7_3std2io6cursor6CursorReEQINtNtCsjjC6uJeAzJn_5alloc3vec3VechEEsJ_0B6_
FNDA:0,_RNCINvNtCs9svORWNbXMv_13weaveback_api3mcp7run_mcpINtNtNtCshbt5Cx3aOt7_3std2io6cursor6CursorReEQINtNtCsjjC6uJeAzJn_5alloc3vec3VechEEsK_0B6_
FNDA:0,_RNCINvNtCs9svORWNbXMv_13weaveback_api3mcp7run_mcpINtNtNtCshbt5Cx3aOt7_3std2io6cursor6CursorReEQINtNtCsjjC6uJeAzJn_5alloc3vec3VechEEsL_0B6_
FNDA:0,_RNCINvNtCs9svORWNbXMv_13weaveback_api3mcp7run_mcpINtNtNtCshbt5Cx3aOt7_3std2io6cursor6CursorReEQINtNtCsjjC6uJeAzJn_5alloc3vec3VechEEsM_0B6_
FNDA:0,_RNCINvNtCs9svORWNbXMv_13weaveback_api3mcp7run_mcpINtNtNtCshbt5Cx3aOt7_3std2io6cursor6CursorReEQINtNtCsjjC6uJeAzJn_5alloc3vec3VechEEsN_0B6_
FNDA:0,_RNCINvNtCs9svORWNbXMv_13weaveback_api3mcp7run_mcpINtNtNtCshbt5Cx3aOt7_3std2io6cursor6CursorReEQINtNtCsjjC6uJeAzJn_5alloc3vec3VechEEsO_0B6_
FNDA:0,_RNCINvNtCs9svORWNbXMv_13weaveback_api3mcp7run_mcpINtNtNtCshbt5Cx3aOt7_3std2io6cursor6CursorReEQINtNtCsjjC6uJeAzJn_5alloc3vec3VechEEsP_0B6_
FNDA:0,_RNCINvNtCs9svORWNbXMv_13weaveback_api3mcp7run_mcpINtNtNtCshbt5Cx3aOt7_3std2io6cursor6CursorReEQINtNtCsjjC6uJeAzJn_5alloc3vec3VechEEsQ_0B6_
FNDA:0,_RNCINvNtCs9svORWNbXMv_13weaveback_api3mcp7run_mcpINtNtNtCshbt5Cx3aOt7_3std2io6cursor6CursorReEQINtNtCsjjC6uJeAzJn_5alloc3vec3VechEEsR_0B6_
FNDA:0,_RNCINvNtCs9svORWNbXMv_13weaveback_api3mcp7run_mcpINtNtNtCshbt5Cx3aOt7_3std2io6cursor6CursorReEQINtNtCsjjC6uJeAzJn_5alloc3vec3VechEEs_0B6_
FNDA:0,_RNCINvNtCs9svORWNbXMv_13weaveback_api3mcp7run_mcpINtNtNtCshbt5Cx3aOt7_3std2io6cursor6CursorReEQINtNtCsjjC6uJeAzJn_5alloc3vec3VechEEsa_0B6_
FNDA:0,_RNCINvNtCs9svORWNbXMv_13weaveback_api3mcp7run_mcpINtNtNtCshbt5Cx3aOt7_3std2io6cursor6CursorReEQINtNtCsjjC6uJeAzJn_5alloc3vec3VechEEsb_0B6_
FNDA:0,_RNCINvNtCs9svORWNbXMv_13weaveback_api3mcp7run_mcpINtNtNtCshbt5Cx3aOt7_3std2io6cursor6CursorReEQINtNtCsjjC6uJeAzJn_5alloc3vec3VechEEsc_0B6_
FNDA:0,_RNCINvNtCs9svORWNbXMv_13weaveback_api3mcp7run_mcpINtNtNtCshbt5Cx3aOt7_3std2io6cursor6CursorReEQINtNtCsjjC6uJeAzJn_5alloc3vec3VechEEsd_0B6_
FNDA:0,_RNCINvNtCs9svORWNbXMv_13weaveback_api3mcp7run_mcpINtNtNtCshbt5Cx3aOt7_3std2io6cursor6CursorReEQINtNtCsjjC6uJeAzJn_5alloc3vec3VechEEse_0B6_
FNDA:0,_RNCINvNtCs9svORWNbXMv_13weaveback_api3mcp7run_mcpINtNtNtCshbt5Cx3aOt7_3std2io6cursor6CursorReEQINtNtCsjjC6uJeAzJn_5alloc3vec3VechEEsf_0B6_
FNDA:0,_RNCINvNtCs9svORWNbXMv_13weaveback_api3mcp7run_mcpINtNtNtCshbt5Cx3aOt7_3std2io6cursor6CursorReEQINtNtCsjjC6uJeAzJn_5alloc3vec3VechEEsg_0B6_
FNDA:0,_RNCINvNtCs9svORWNbXMv_13weaveback_api3mcp7run_mcpINtNtNtCshbt5Cx3aOt7_3std2io6cursor6CursorReEQINtNtCsjjC6uJeAzJn_5alloc3vec3VechEEsh_0B6_
FNDA:0,_RNCINvNtCs9svORWNbXMv_13weaveback_api3mcp7run_mcpINtNtNtCshbt5Cx3aOt7_3std2io6cursor6CursorReEQINtNtCsjjC6uJeAzJn_5alloc3vec3VechEEsi_0B6_
FNDA:0,_RNCINvNtCs9svORWNbXMv_13weaveback_api3mcp7run_mcpINtNtNtCshbt5Cx3aOt7_3std2io6cursor6CursorReEQINtNtCsjjC6uJeAzJn_5alloc3vec3VechEEsj_0B6_
FNDA:0,_RNCINvNtCs9svORWNbXMv_13weaveback_api3mcp7run_mcpINtNtNtCshbt5Cx3aOt7_3std2io6cursor6CursorReEQINtNtCsjjC6uJeAzJn_5alloc3vec3VechEEsk_0B6_
FNDA:0,_RNCINvNtCs9svORWNbXMv_13weaveback_api3mcp7run_mcpINtNtNtCshbt5Cx3aOt7_3std2io6cursor6CursorReEQINtNtCsjjC6uJeAzJn_5alloc3vec3VechEEsl_0B6_
FNDA:0,_RNCINvNtCs9svORWNbXMv_13weaveback_api3mcp7run_mcpINtNtNtCshbt5Cx3aOt7_3std2io6cursor6CursorReEQINtNtCsjjC6uJeAzJn_5alloc3vec3VechEEsm_0B6_
FNDA:0,_RNCINvNtCs9svORWNbXMv_13weaveback_api3mcp7run_mcpINtNtNtCshbt5Cx3aOt7_3std2io6cursor6CursorReEQINtNtCsjjC6uJeAzJn_5alloc3vec3VechEEsn_0B6_
FNDA:0,_RNCINvNtCs9svORWNbXMv_13weaveback_api3mcp7run_mcpINtNtNtCshbt5Cx3aOt7_3std2io6cursor6CursorReEQINtNtCsjjC6uJeAzJn_5alloc3vec3VechEEso_0B6_
FNDA:0,_RNCINvNtCs9svORWNbXMv_13weaveback_api3mcp7run_mcpINtNtNtCshbt5Cx3aOt7_3std2io6cursor6CursorReEQINtNtCsjjC6uJeAzJn_5alloc3vec3VechEEsp_0B6_
FNDA:0,_RNCINvNtCs9svORWNbXMv_13weaveback_api3mcp7run_mcpINtNtNtCshbt5Cx3aOt7_3std2io6cursor6CursorReEQINtNtCsjjC6uJeAzJn_5alloc3vec3VechEEsq_0B6_
FNDA:0,_RNCINvNtCs9svORWNbXMv_13weaveback_api3mcp7run_mcpINtNtNtCshbt5Cx3aOt7_3std2io6cursor6CursorReEQINtNtCsjjC6uJeAzJn_5alloc3vec3VechEEsr_0B6_
FNDA:0,_RNCINvNtCs9svORWNbXMv_13weaveback_api3mcp7run_mcpINtNtNtCshbt5Cx3aOt7_3std2io6cursor6CursorReEQINtNtCsjjC6uJeAzJn_5alloc3vec3VechEEss_0B6_
FNDA:0,_RNCINvNtCs9svORWNbXMv_13weaveback_api3mcp7run_mcpINtNtNtCshbt5Cx3aOt7_3std2io6cursor6CursorReEQINtNtCsjjC6uJeAzJn_5alloc3vec3VechEEst_0B6_
FNDA:0,_RNCINvNtCs9svORWNbXMv_13weaveback_api3mcp7run_mcpINtNtNtCshbt5Cx3aOt7_3std2io6cursor6CursorReEQINtNtCsjjC6uJeAzJn_5alloc3vec3VechEEsu_0B6_
FNDA:0,_RNCINvNtCs9svORWNbXMv_13weaveback_api3mcp7run_mcpINtNtNtCshbt5Cx3aOt7_3std2io6cursor6CursorReEQINtNtCsjjC6uJeAzJn_5alloc3vec3VechEEsv_0B6_
FNDA:0,_RNCINvNtCs9svORWNbXMv_13weaveback_api3mcp7run_mcpINtNtNtCshbt5Cx3aOt7_3std2io6cursor6CursorReEQINtNtCsjjC6uJeAzJn_5alloc3vec3VechEEsw_0B6_
FNDA:0,_RNCINvNtCs9svORWNbXMv_13weaveback_api3mcp7run_mcpINtNtNtCshbt5Cx3aOt7_3std2io6cursor6CursorReEQINtNtCsjjC6uJeAzJn_5alloc3vec3VechEEsx_0B6_
FNDA:0,_RNCINvNtCs9svORWNbXMv_13weaveback_api3mcp7run_mcpINtNtNtCshbt5Cx3aOt7_3std2io6cursor6CursorReEQINtNtCsjjC6uJeAzJn_5alloc3vec3VechEEsy_0B6_
FNDA:0,_RNCINvNtCs9svORWNbXMv_13weaveback_api3mcp7run_mcpINtNtNtCshbt5Cx3aOt7_3std2io6cursor6CursorReEQINtNtCsjjC6uJeAzJn_5alloc3vec3VechEEsz_0B6_
FNDA:1,_RNCNCINvNtCs9svORWNbXMv_13weaveback_api3mcp7run_mcpINtNtNtCshbt5Cx3aOt7_3std2io6cursor6CursorNtNtCsjjC6uJeAzJn_5alloc6string6StringEQINtNtB1x_3vec3VechEEs8_00B8_
FNDA:0,_RNCNCINvNtCs9svORWNbXMv_13weaveback_api3mcp7run_mcpINtNtNtCshbt5Cx3aOt7_3std2io6cursor6CursorReEQINtNtCsjjC6uJeAzJn_5alloc3vec3VechEEs8_00B8_
FNDA:1,_RNCNCNCINvNtCs9svORWNbXMv_13weaveback_api3mcp7run_mcpINtNtNtCshbt5Cx3aOt7_3std2io6cursor6CursorNtNtCsjjC6uJeAzJn_5alloc6string6StringEQINtNtB1z_3vec3VechEEs8_000Ba_
FNDA:0,_RNCNCNCINvNtCs9svORWNbXMv_13weaveback_api3mcp7run_mcpINtNtNtCshbt5Cx3aOt7_3std2io6cursor6CursorReEQINtNtCsjjC6uJeAzJn_5alloc3vec3VechEEs8_000Ba_
FNDA:2,_RNCNvNtCs9svORWNbXMv_13weaveback_api3mcp16get_or_spawn_lsp0B5_
FNDA:0,_RNCNvNtCs9svORWNbXMv_13weaveback_api3mcp16get_or_spawn_lsps0_0B5_
FNDA:0,_RNCNvNtCs9svORWNbXMv_13weaveback_api3mcp16get_or_spawn_lsps1_0B5_
FNDA:0,_RNCNvNtCs9svORWNbXMv_13weaveback_api3mcp16get_or_spawn_lsps_0B5_
FNDA:42,_RNvXs_NtNtCs9svORWNbXMv_13weaveback_api3mcp5testsNtB4_12McpWorkspaceNtNtNtCs9yMf5VoQcqS_4core3ops4drop4Drop4drop
FNDA:8,_RNvNtCs9svORWNbXMv_13weaveback_api3mcp16get_or_spawn_lsp
FNF:128
FNH:112
DA:17,8
DA:18,8
DA:19,8
DA:20,8
DA:21,8
DA:22,8
DA:24,6
DA:25,0
DA:26,6
DA:29,6
DA:30,6
DA:31,6
DA:32,6
DA:33,6
DA:34,6
DA:35,6
DA:36,0
DA:37,6
DA:38,8
DA:40,43
DA:41,43
DA:42,43
DA:43,43
DA:44,43
DA:45,43
DA:46,43
DA:47,43
DA:48,43
DA:49,43
DA:50,43
DA:51,43
DA:52,43
DA:53,43
DA:54,43
DA:55,43
DA:57,52
DA:58,52
DA:59,52
DA:60,0
DA:62,52
DA:64,49
DA:65,47
DA:66,2
DA:69,47
DA:70,47
DA:72,47
DA:73,47
DA:74,3
DA:75,3
DA:76,3
DA:77,3
DA:78,3
DA:79,3
DA:81,44
DA:82,2
DA:83,2
DA:84,2
DA:85,2
DA:86,2
DA:87,2
DA:88,2
DA:89,2
DA:90,2
DA:91,2
DA:92,2
DA:93,2
DA:94,2
DA:95,2
DA:96,2
DA:97,2
DA:98,2
DA:99,2
DA:100,2
DA:101,2
DA:102,2
DA:103,2
DA:104,2
DA:105,2
DA:106,2
DA:107,2
DA:108,2
DA:109,2
DA:110,2
DA:111,2
DA:112,2
DA:113,2
DA:114,2
DA:115,2
DA:116,2
DA:117,2
DA:118,2
DA:119,2
DA:120,2
DA:121,2
DA:122,2
DA:123,2
DA:124,2
DA:125,2
DA:126,2
DA:127,2
DA:128,2
DA:129,2
DA:130,2
DA:131,2
DA:132,2
DA:133,2
DA:134,2
DA:135,2
DA:136,2
DA:137,2
DA:138,2
DA:139,2
DA:140,2
DA:141,2
DA:142,2
DA:143,2
DA:144,2
DA:145,2
DA:146,2
DA:147,2
DA:148,2
DA:149,2
DA:150,2
DA:151,2
DA:152,2
DA:153,2
DA:154,2
DA:155,2
DA:156,2
DA:157,2
DA:158,2
DA:159,2
DA:160,2
DA:161,2
DA:162,2
DA:163,2
DA:164,2
DA:165,2
DA:166,2
DA:167,2
DA:168,2
DA:169,2
DA:170,2
DA:171,2
DA:172,2
DA:173,2
DA:174,2
DA:175,2
DA:176,2
DA:177,2
DA:178,2
DA:179,2
DA:180,2
DA:181,2
DA:182,2
DA:183,2
DA:184,2
DA:185,2
DA:186,2
DA:187,2
DA:188,2
DA:189,2
DA:190,2
DA:191,2
DA:192,2
DA:193,2
DA:194,2
DA:195,2
DA:196,2
DA:197,2
DA:198,2
DA:199,2
DA:200,2
DA:201,2
DA:202,2
DA:203,2
DA:204,2
DA:205,2
DA:206,2
DA:207,2
DA:208,2
DA:209,2
DA:210,2
DA:211,2
DA:212,2
DA:213,2
DA:214,2
DA:215,2
DA:216,2
DA:217,2
DA:218,2
DA:219,2
DA:220,2
DA:221,2
DA:222,2
DA:223,2
DA:224,2
DA:225,2
DA:226,2
DA:227,2
DA:228,2
DA:229,2
DA:230,2
DA:231,2
DA:232,2
DA:233,2
DA:234,2
DA:235,2
DA:236,2
DA:237,2
DA:238,2
DA:239,2
DA:240,2
DA:241,2
DA:242,2
DA:243,2
DA:244,2
DA:245,2
DA:246,2
DA:247,2
DA:248,2
DA:249,2
DA:250,2
DA:251,2
DA:252,2
DA:253,2
DA:254,2
DA:255,2
DA:256,2
DA:257,2
DA:259,42
DA:260,37
DA:261,37
DA:262,37
DA:264,37
DA:265,37
DA:266,4
DA:267,2
DA:268,2
DA:270,2
DA:271,2
DA:272,2
DA:274,2
DA:275,1
DA:276,1
DA:277,1
DA:278,1
DA:279,1
DA:280,1
DA:281,1
DA:282,1
DA:283,1
DA:284,1
DA:285,1
DA:286,1
DA:287,1
DA:288,1
DA:289,1
DA:291,0
DA:292,0
DA:296,33
DA:297,3
DA:298,3
DA:299,3
DA:300,3
DA:301,3
DA:302,3
DA:304,3
DA:305,3
DA:306,3
DA:307,3
DA:308,3
DA:309,3
DA:310,3
DA:311,3
DA:312,3
DA:313,3
DA:314,0
DA:318,30
DA:319,4
DA:320,0
DA:321,0
DA:323,4
DA:324,4
DA:325,4
DA:326,4
DA:327,4
DA:328,0
DA:330,4
DA:331,4
DA:333,4
DA:334,4
DA:335,4
DA:337,4
DA:338,2
DA:339,2
DA:340,2
DA:341,2
DA:342,1
DA:343,1
DA:344,1
DA:346,1
DA:347,1
DA:348,1
DA:349,1
DA:350,1
DA:351,1
DA:352,1
DA:353,1
DA:354,1
DA:355,1
DA:356,1
DA:357,1
DA:358,1
DA:359,1
DA:360,1
DA:361,1
DA:362,1
DA:363,1
DA:364,1
DA:365,1
DA:366,1
DA:367,1
DA:368,1
DA:369,1
DA:370,1
DA:371,1
DA:372,1
DA:373,1
DA:375,0
DA:376,0
DA:377,0
DA:378,0
DA:379,0
DA:380,0
DA:381,0
DA:383,0
DA:387,26
DA:388,2
DA:389,0
DA:390,0
DA:392,2
DA:393,2
DA:394,2
DA:395,2
DA:396,1
DA:397,1
DA:398,1
DA:399,1
DA:400,1
DA:401,1
DA:402,1
DA:403,1
DA:404,1
DA:405,1
DA:406,1
DA:407,1
DA:408,1
DA:409,1
DA:410,1
DA:411,1
DA:412,1
DA:413,0
DA:417,24
DA:418,4
DA:419,4
DA:420,4
DA:421,4
DA:422,1
DA:423,1
DA:424,3
DA:425,3
DA:426,0
DA:427,3
DA:428,0
DA:429,3
DA:430,3
DA:431,2
DA:432,2
DA:433,2
DA:434,2
DA:435,2
DA:436,3
DA:437,3
DA:443,20
DA:444,3
DA:445,0
DA:446,0
DA:448,3
DA:449,3
DA:450,2
DA:451,2
DA:452,1
DA:453,1
DA:454,0
DA:455,0
DA:456,1
DA:457,1
DA:458,0
DA:459,1
DA:460,0
DA:461,1
DA:462,1
DA:463,1
DA:464,1
DA:465,1
DA:466,1
DA:467,1
DA:468,1
DA:474,17
DA:475,3
DA:476,0
DA:477,0
DA:479,3
DA:480,3
DA:481,3
DA:483,3
DA:484,0
DA:485,0
DA:486,3
DA:488,3
DA:489,3
DA:490,2
DA:491,1
DA:494,2
DA:495,0
DA:496,0
DA:497,0
DA:498,0
DA:500,0
DA:501,0
DA:502,0
DA:503,0
DA:504,0
DA:505,0
DA:506,0
DA:508,0
DA:509,0
DA:510,0
DA:511,0
DA:512,0
DA:513,0
DA:514,0
DA:515,0
DA:517,0
DA:518,0
DA:519,0
DA:521,1
DA:522,1
DA:526,14
DA:527,1
DA:528,0
DA:529,0
DA:531,1
DA:532,1
DA:533,1
DA:535,1
DA:536,0
DA:537,0
DA:538,1
DA:540,1
DA:541,1
DA:542,1
DA:543,0
DA:546,1
DA:547,1
DA:548,1
DA:549,1
DA:550,1
DA:552,1
DA:553,0
DA:554,0
DA:555,0
DA:556,0
DA:557,0
DA:558,0
DA:559,0
DA:560,0
DA:562,0
DA:563,0
DA:564,0
DA:565,0
DA:566,0
DA:567,0
DA:570,0
DA:572,1
DA:574,0
DA:578,13
DA:579,1
DA:580,0
DA:581,0
DA:583,1
DA:584,1
DA:585,1
DA:587,1
DA:588,0
DA:589,0
DA:590,1
DA:592,1
DA:593,1
DA:594,1
DA:595,0
DA:598,1
DA:599,0
DA:600,0
DA:601,0
DA:604,0
DA:606,0
DA:607,0
DA:609,0
DA:610,0
DA:611,0
DA:612,0
DA:614,1
DA:615,0
DA:619,12
DA:620,0
DA:621,0
DA:622,0
DA:624,0
DA:625,0
DA:626,0
DA:627,0
DA:628,0
DA:630,0
DA:631,0
DA:632,0
DA:633,0
DA:636,0
DA:637,0
DA:638,0
DA:640,0
DA:641,0
DA:642,0
DA:643,0
DA:644,0
DA:645,0
DA:646,0
DA:647,0
DA:648,0
DA:649,0
DA:650,0
DA:653,12
DA:654,2
DA:655,0
DA:656,0
DA:658,2
DA:659,2
DA:660,0
DA:661,0
DA:662,2
DA:664,2
DA:665,2
DA:666,2
DA:667,0
DA:670,2
DA:671,1
DA:672,1
DA:673,1
DA:674,1
DA:678,10
DA:679,4
DA:680,4
DA:681,4
DA:682,4
DA:683,4
DA:684,1
DA:685,1
DA:686,3
DA:687,3
DA:688,3
DA:689,3
DA:690,3
DA:691,3
DA:692,1
DA:693,1
DA:694,2
DA:695,2
DA:696,0
DA:697,2
DA:698,2
DA:699,1
DA:700,1
DA:701,1
DA:702,1
DA:703,1
DA:704,1
DA:705,1
DA:706,1
DA:708,1
DA:709,0
DA:710,1
DA:711,1
DA:712,2
DA:713,2
DA:718,6
DA:719,3
DA:720,3
DA:721,3
DA:722,3
DA:723,1
DA:724,1
DA:725,2
DA:726,2
DA:727,0
DA:728,2
DA:729,0
DA:730,2
DA:731,2
DA:732,1
DA:733,1
DA:734,1
DA:735,1
DA:736,1
DA:737,2
DA:738,2
DA:744,3
DA:745,2
DA:746,2
DA:747,2
DA:748,2
DA:749,2
DA:750,2
DA:751,1
DA:752,1
DA:753,1
DA:754,1
DA:755,0
DA:756,0
DA:757,1
DA:758,1
DA:759,1
DA:760,1
DA:761,1
DA:762,1
DA:763,1
DA:764,1
DA:765,0
DA:766,0
DA:770,1
DA:774,5
DA:775,1
DA:776,1
DA:777,4
DA:778,1
DA:779,1
DA:780,3
DA:781,1
DA:784,43
DA:785,43
DA:787,44
DA:788,44
DA:789,44
DA:790,44
DA:791,44
DA:792,44
DA:793,44
DA:794,44
DA:796,19
DA:797,19
DA:798,19
DA:800,19
DA:802,18
DA:803,18
DA:804,18
DA:805,18
DA:807,18
DA:817,1
DA:818,1
DA:819,1
DA:820,1
DA:821,1
DA:822,0
DA:824,1
DA:825,1
DA:828,1
DA:833,1
DA:834,1
DA:835,1
DA:836,1
DA:837,1
DA:838,1
DA:839,1
DA:840,1
DA:841,1
DA:844,1
DA:845,1
DA:846,1
DA:847,1
DA:848,6
DA:849,1
DA:850,1
DA:851,1
DA:852,1
DA:853,1
DA:855,1
DA:856,1
DA:857,1
DA:858,1
DA:859,1
DA:860,1
DA:861,1
DA:862,1
DA:863,1
DA:865,1
DA:866,1
DA:867,1
DA:869,1
DA:870,1
DA:871,1
DA:872,1
DA:873,1
DA:874,1
DA:882,42
DA:883,42
DA:885,42
DA:886,42
DA:887,42
DA:888,42
DA:889,42
DA:891,42
DA:892,42
DA:893,42
DA:894,42
DA:895,42
DA:896,63
DA:897,45
DA:898,17
DA:899,5
DA:900,5
DA:901,5
DA:902,5
DA:903,5
DA:904,5
DA:905,5
DA:908,42
DA:911,42
DA:912,42
DA:913,42
DA:914,42
DA:915,42
DA:916,42
DA:921,1
DA:922,1
DA:923,1
DA:924,1
DA:925,1
DA:928,1
DA:929,1
DA:930,1
DA:931,1
DA:932,1
DA:935,1
DA:936,1
DA:937,1
DA:938,1
DA:939,1
DA:940,1
DA:941,1
DA:946,1
DA:947,1
DA:948,1
DA:949,1
DA:950,1
DA:951,1
DA:952,1
DA:955,1
DA:956,1
DA:957,1
DA:958,1
DA:959,1
DA:960,1
DA:963,1
DA:964,1
DA:965,1
DA:966,1
DA:967,1
DA:968,1
DA:971,1
DA:972,1
DA:973,1
DA:974,1
DA:975,1
DA:976,1
DA:979,1
DA:980,1
DA:981,1
DA:982,1
DA:983,1
DA:984,1
DA:987,1
DA:988,1
DA:989,1
DA:990,1
DA:991,1
DA:992,1
DA:995,1
DA:996,1
DA:997,1
DA:998,1
DA:999,1
DA:1000,1
DA:1003,1
DA:1004,1
DA:1005,1
DA:1006,1
DA:1007,1
DA:1008,1
DA:1011,1
DA:1012,1
DA:1013,1
DA:1014,1
DA:1015,1
DA:1016,1
DA:1019,1
DA:1020,1
DA:1021,1
DA:1022,1
DA:1023,1
DA:1024,1
DA:1027,1
DA:1028,1
DA:1029,1
DA:1030,1
DA:1031,1
DA:1032,1
DA:1035,1
DA:1036,1
DA:1037,1
DA:1038,1
DA:1039,1
DA:1040,1
DA:1041,1
DA:1046,1
DA:1047,1
DA:1048,1
DA:1049,1
DA:1050,1
DA:1051,1
DA:1052,1
DA:1053,1
DA:1054,1
DA:1055,1
DA:1056,1
DA:1057,1
DA:1058,1
DA:1059,1
DA:1060,1
DA:1061,1
DA:1062,1
DA:1065,1
DA:1066,1
DA:1067,1
DA:1068,1
DA:1069,1
DA:1070,1
DA:1071,1
DA:1072,1
DA:1073,1
DA:1074,1
DA:1075,1
DA:1076,1
DA:1077,1
DA:1078,1
DA:1079,1
DA:1080,1
DA:1083,1
DA:1084,1
DA:1085,1
DA:1086,1
DA:1087,1
DA:1088,1
DA:1089,1
DA:1090,1
DA:1093,1
DA:1094,1
DA:1095,1
DA:1096,1
DA:1097,1
DA:1098,1
DA:1101,1
DA:1102,1
DA:1103,1
DA:1104,1
DA:1105,1
DA:1106,1
DA:1107,1
DA:1108,1
DA:1109,1
DA:1110,1
DA:1111,1
DA:1112,1
DA:1113,1
DA:1114,1
DA:1115,1
DA:1116,1
DA:1117,1
DA:1118,1
DA:1119,1
DA:1120,1
DA:1123,1
DA:1124,1
DA:1125,1
DA:1126,1
DA:1128,1
DA:1129,1
DA:1130,1
DA:1131,1
DA:1132,1
DA:1133,1
DA:1134,1
DA:1135,1
DA:1136,1
DA:1137,1
DA:1138,1
DA:1140,1
DA:1141,1
DA:1142,1
DA:1143,1
DA:1146,1
DA:1147,1
DA:1148,1
DA:1149,1
DA:1150,1
DA:1152,1
DA:1153,1
DA:1154,1
DA:1155,1
DA:1156,1
DA:1157,1
DA:1158,1
DA:1159,1
DA:1160,1
DA:1161,1
DA:1163,1
DA:1164,1
DA:1165,1
DA:1166,1
DA:1167,1
DA:1170,1
DA:1171,1
DA:1172,1
DA:1173,1
DA:1175,1
DA:1176,1
DA:1177,1
DA:1178,1
DA:1179,1
DA:1180,1
DA:1181,1
DA:1182,1
DA:1183,1
DA:1184,1
DA:1185,1
DA:1188,1
DA:1191,1
DA:1192,1
DA:1194,1
DA:1195,1
DA:1196,1
DA:1201,1
DA:1202,1
DA:1203,1
DA:1204,1
DA:1206,1
DA:1207,1
DA:1208,1
DA:1209,1
DA:1210,1
DA:1211,1
DA:1212,1
DA:1213,1
DA:1214,1
DA:1215,1
DA:1216,1
DA:1219,1
DA:1222,1
DA:1223,1
DA:1224,1
DA:1226,1
DA:1227,1
DA:1228,1
DA:1231,1
DA:1232,1
DA:1233,1
DA:1234,1
DA:1235,1
DA:1236,1
DA:1237,1
DA:1238,1
DA:1239,1
DA:1240,1
DA:1241,1
DA:1242,1
DA:1243,1
DA:1244,1
DA:1245,1
DA:1246,1
DA:1247,1
DA:1248,1
DA:1249,1
DA:1250,1
DA:1251,1
DA:1252,1
DA:1253,1
DA:1254,1
DA:1255,1
DA:1256,1
DA:1257,1
DA:1260,1
DA:1261,1
DA:1262,1
DA:1263,1
DA:1264,1
DA:1265,1
DA:1266,1
DA:1267,1
DA:1268,1
DA:1269,1
DA:1270,1
DA:1271,1
DA:1272,1
DA:1273,1
DA:1274,1
DA:1275,1
DA:1276,1
DA:1279,1
DA:1280,1
DA:1281,1
DA:1282,1
DA:1283,1
DA:1285,1
DA:1286,1
DA:1290,1
DA:1291,1
DA:1292,1
DA:1301,4
DA:1302,4
DA:1304,12
DA:1305,12
DA:1306,8
DA:1307,8
DA:1308,0
DA:1309,4
DA:1310,8
DA:1312,0
DA:1313,4
DA:1315,4
DA:1316,4
DA:1317,4
DA:1319,4
DA:1321,4
DA:1322,4
DA:1323,4
DA:1326,1
DA:1327,1
DA:1328,1
DA:1329,1
DA:1330,1
DA:1331,1
DA:1334,1
DA:1335,1
DA:1336,1
DA:1339,1
DA:1340,1
DA:1341,1
DA:1342,1
DA:1343,1
DA:1344,1
DA:1347,1
DA:1348,1
DA:1349,1
DA:1352,1
DA:1353,1
DA:1354,1
DA:1355,1
DA:1356,1
DA:1357,1
DA:1360,1
DA:1361,1
DA:1362,1
DA:1365,1
DA:1366,1
DA:1367,1
DA:1368,1
DA:1369,1
DA:1370,1
DA:1373,1
DA:1374,1
DA:1375,1
DA:1378,1
DA:1379,1
DA:1381,1
DA:1382,1
DA:1383,1
DA:1384,1
DA:1385,1
DA:1387,1
DA:1388,1
DA:1389,1
DA:1390,1
DA:1391,1
DA:1392,1
DA:1395,1
DA:1396,1
DA:1397,1
DA:1398,1
DA:1399,1
DA:1400,1
DA:1401,1
DA:1403,1
DA:1405,1
DA:1406,1
DA:1409,1
DA:1410,1
DA:1411,1
DA:1412,1
DA:1413,1
DA:1414,1
DA:1415,1
DA:1416,1
DA:1417,1
DA:1418,1
DA:1421,1
DA:1422,1
DA:1424,1
DA:1425,1
DA:1426,1
DA:1427,1
DA:1429,1
DA:1430,1
DA:1433,1
DA:1434,1
DA:1435,1
DA:1436,1
DA:1437,1
DA:1438,1
DA:1439,1
DA:1440,1
DA:1441,1
DA:1444,1
DA:1445,1
DA:1446,1
DA:1447,1
DA:1448,1
DA:1449,1
DA:1450,1
DA:1451,1
DA:1452,0
DA:1453,0
DA:1454,0
DA:1455,0
DA:1456,0
DA:1457,0
DA:1458,0
DA:1461,1
DA:1462,1
DA:1463,1
DA:1464,1
DA:1465,1
DA:1466,1
DA:1467,1
DA:1470,1
DA:1471,1
DA:1472,1
DA:1473,1
DA:1474,1
DA:1475,1
DA:1476,1
DA:1479,1
DA:1480,1
DA:1481,1
DA:1482,1
DA:1483,1
DA:1484,1
DA:1485,1
DA:1488,1
DA:1490,1
DA:1491,1
DA:1492,1
DA:1493,1
DA:1495,1
DA:1496,1
DA:1499,1
DA:1500,1
DA:1501,1
DA:1502,1
DA:1503,1
DA:1504,1
DA:1505,1
BRF:0
BRH:0
LF:1258
LH:1103
end_of_record
SF:/home/g4/_prj/weaveback/crates/weaveback-api/src/process.rs
FN:268,_RNCNCNvNtCsaY2CvWUtqiY_13weaveback_api7process15run_single_passs1_00B7_
FN:309,_RNCNCNvNtCsaY2CvWUtqiY_13weaveback_api7process15run_single_passs4_00B7_
FN:156,_RNCNCNvNtCsaY2CvWUtqiY_13weaveback_api7process16compute_skip_set00B7_
FN:115,_RNCNvNtCsaY2CvWUtqiY_13weaveback_api7process10find_files0B5_
FN:116,_RNCNvNtCsaY2CvWUtqiY_13weaveback_api7process10find_filess_0B5_
FN:246,_RNCNvNtCsaY2CvWUtqiY_13weaveback_api7process15run_single_pass0B5_
FN:262,_RNCNvNtCsaY2CvWUtqiY_13weaveback_api7process15run_single_passs0_0B5_
FN:268,_RNCNvNtCsaY2CvWUtqiY_13weaveback_api7process15run_single_passs1_0B5_
FN:279,_RNCNvNtCsaY2CvWUtqiY_13weaveback_api7process15run_single_passs2_0B5_
FN:292,_RNCNvNtCsaY2CvWUtqiY_13weaveback_api7process15run_single_passs3_0B5_
FN:308,_RNCNvNtCsaY2CvWUtqiY_13weaveback_api7process15run_single_passs4_0B5_
FN:316,_RNCNvNtCsaY2CvWUtqiY_13weaveback_api7process15run_single_passs5_0B5_
FN:326,_RNCNvNtCsaY2CvWUtqiY_13weaveback_api7process15run_single_passs6_0B5_
FN:336,_RNCNvNtCsaY2CvWUtqiY_13weaveback_api7process15run_single_passs7_0B5_
FN:347,_RNCNvNtCsaY2CvWUtqiY_13weaveback_api7process15run_single_passs8_0B5_
FN:352,_RNCNvNtCsaY2CvWUtqiY_13weaveback_api7process15run_single_passs9_0B5_
FN:247,_RNCNvNtCsaY2CvWUtqiY_13weaveback_api7process15run_single_passs_0B5_
FN:367,_RNCNvNtCsaY2CvWUtqiY_13weaveback_api7process15run_single_passsa_0B5_
FN:373,_RNCNvNtCsaY2CvWUtqiY_13weaveback_api7process15run_single_passsb_0B5_
FN:387,_RNCNvNtCsaY2CvWUtqiY_13weaveback_api7process15run_single_passsc_0B5_
FN:398,_RNCNvNtCsaY2CvWUtqiY_13weaveback_api7process15run_single_passsd_0B5_
FN:403,_RNCNvNtCsaY2CvWUtqiY_13weaveback_api7process15run_single_passse_0B5_
FN:423,_RNCNvNtCsaY2CvWUtqiY_13weaveback_api7process15run_single_passsf_0B5_
FN:424,_RNCNvNtCsaY2CvWUtqiY_13weaveback_api7process15run_single_passsg_0B5_
FN:428,_RNCNvNtCsaY2CvWUtqiY_13weaveback_api7process15run_single_passsh_0B5_
FN:153,_RNCNvNtCsaY2CvWUtqiY_13weaveback_api7process16compute_skip_set0B5_
FN:181,_RNCNvNtCsaY2CvWUtqiY_13weaveback_api7process16compute_skip_sets0_0B5_
FN:219,_RNCNvNtCsaY2CvWUtqiY_13weaveback_api7process16compute_skip_sets1_0B5_
FN:173,_RNCNvNtCsaY2CvWUtqiY_13weaveback_api7process16compute_skip_sets_0B5_
FN:109,_RNvNtCsaY2CvWUtqiY_13weaveback_api7process10find_files
FN:129,_RNvNtCsaY2CvWUtqiY_13weaveback_api7process13write_depfile
FN:124,_RNvNtCsaY2CvWUtqiY_13weaveback_api7process14depfile_escape
FN:245,_RNvNtCsaY2CvWUtqiY_13weaveback_api7process15run_single_pass
FN:143,_RNvNtCsaY2CvWUtqiY_13weaveback_api7process16compute_skip_set
FN:876,_RNvNtNtCs9svORWNbXMv_13weaveback_api7process5testss_28run_single_pass_bench_no_fts
FN:698,_RNvNtNtCs9svORWNbXMv_13weaveback_api7process5testss_30run_single_pass_directory_mode
FN:839,_RNvNtNtCs9svORWNbXMv_13weaveback_api7process5testss_31find_files_error_on_missing_dir
FN:723,_RNvNtNtCs9svORWNbXMv_13weaveback_api7process5testss_33run_single_pass_depfile_and_stamp
FN:752,_RNvNtNtCs9svORWNbXMv_13weaveback_api7process5testss_33run_single_pass_dry_run_no_writes
FN:619,_RNvNtNtCs9svORWNbXMv_13weaveback_api7process5testss_33run_single_pass_with_custom_sigil
FN:502,_RNvNtNtCs9svORWNbXMv_13weaveback_api7process5testss_34run_single_pass_writes_output_file
FN:775,_RNvNtNtCs9svORWNbXMv_13weaveback_api7process5testss_35run_single_pass_error_missing_input
FN:792,_RNvNtNtCs9svORWNbXMv_13weaveback_api7process5testss_36run_single_pass_with_macro_expansion
FN:544,_RNvNtNtCs9svORWNbXMv_13weaveback_api7process5testss_36test_run_single_pass_force_generated
FN:456,_RNvNtNtCs9svORWNbXMv_13weaveback_api7process5testss_37find_files_returns_empty_for_no_match
FN:482,_RNvNtNtCs9svORWNbXMv_13weaveback_api7process5testss_37write_depfile_escapes_spaces_in_paths
FN:589,_RNvNtNtCs9svORWNbXMv_13weaveback_api7process5testss_38run_single_pass_respects_include_paths
FN:465,_RNvNtNtCs9svORWNbXMv_13weaveback_api7process5testss_38write_depfile_produces_makefile_format
FN:815,_RNvNtNtCs9svORWNbXMv_13weaveback_api7process5testss_39run_single_pass_with_var_defs_recording
FN:845,_RNvNtNtCs9svORWNbXMv_13weaveback_api7process5testss_39test_compute_skip_set_with_dependencies
FN:648,_RNvNtNtCs9svORWNbXMv_13weaveback_api7process5testss_40compute_skip_set_propagates_dirty_chunks
FN:438,_RNvNtNtCs9svORWNbXMv_13weaveback_api7process5testss_40find_files_discovers_matching_extensions
FN:494,_RNvNtNtCs9svORWNbXMv_13weaveback_api7process5testss_46compute_skip_set_with_no_prev_db_returns_empty
FN:451,_RNCNvNtNtCs9svORWNbXMv_13weaveback_api7process5testss_40find_files_discovers_matching_extensions0B7_
FN:452,_RNCNvNtNtCs9svORWNbXMv_13weaveback_api7process5testss_40find_files_discovers_matching_extensionss_0B7_
FN:78,_RNvMNtCs9svORWNbXMv_13weaveback_api7processNtB2_14SinglePassArgs16default_for_test
FN:109,_RNvNtCs9svORWNbXMv_13weaveback_api7process10find_files
FN:129,_RNvNtCs9svORWNbXMv_13weaveback_api7process13write_depfile
FN:124,_RNvNtCs9svORWNbXMv_13weaveback_api7process14depfile_escape
FN:245,_RNvNtCs9svORWNbXMv_13weaveback_api7process15run_single_pass
FN:143,_RNvNtCs9svORWNbXMv_13weaveback_api7process16compute_skip_set
FN:268,_RNCNCNvNtCs9svORWNbXMv_13weaveback_api7process15run_single_passs1_00B7_
FN:309,_RNCNCNvNtCs9svORWNbXMv_13weaveback_api7process15run_single_passs4_00B7_
FN:156,_RNCNCNvNtCs9svORWNbXMv_13weaveback_api7process16compute_skip_set00B7_
FN:115,_RNCNvNtCs9svORWNbXMv_13weaveback_api7process10find_files0B5_
FN:116,_RNCNvNtCs9svORWNbXMv_13weaveback_api7process10find_filess_0B5_
FN:246,_RNCNvNtCs9svORWNbXMv_13weaveback_api7process15run_single_pass0B5_
FN:262,_RNCNvNtCs9svORWNbXMv_13weaveback_api7process15run_single_passs0_0B5_
FN:268,_RNCNvNtCs9svORWNbXMv_13weaveback_api7process15run_single_passs1_0B5_
FN:279,_RNCNvNtCs9svORWNbXMv_13weaveback_api7process15run_single_passs2_0B5_
FN:292,_RNCNvNtCs9svORWNbXMv_13weaveback_api7process15run_single_passs3_0B5_
FN:308,_RNCNvNtCs9svORWNbXMv_13weaveback_api7process15run_single_passs4_0B5_
FN:316,_RNCNvNtCs9svORWNbXMv_13weaveback_api7process15run_single_passs5_0B5_
FN:326,_RNCNvNtCs9svORWNbXMv_13weaveback_api7process15run_single_passs6_0B5_
FN:336,_RNCNvNtCs9svORWNbXMv_13weaveback_api7process15run_single_passs7_0B5_
FN:347,_RNCNvNtCs9svORWNbXMv_13weaveback_api7process15run_single_passs8_0B5_
FN:352,_RNCNvNtCs9svORWNbXMv_13weaveback_api7process15run_single_passs9_0B5_
FN:247,_RNCNvNtCs9svORWNbXMv_13weaveback_api7process15run_single_passs_0B5_
FN:367,_RNCNvNtCs9svORWNbXMv_13weaveback_api7process15run_single_passsa_0B5_
FN:373,_RNCNvNtCs9svORWNbXMv_13weaveback_api7process15run_single_passsb_0B5_
FN:387,_RNCNvNtCs9svORWNbXMv_13weaveback_api7process15run_single_passsc_0B5_
FN:398,_RNCNvNtCs9svORWNbXMv_13weaveback_api7process15run_single_passsd_0B5_
FN:403,_RNCNvNtCs9svORWNbXMv_13weaveback_api7process15run_single_passse_0B5_
FN:421,_RNCNvNtCs9svORWNbXMv_13weaveback_api7process15run_single_passsf_0B5_
FN:422,_RNCNvNtCs9svORWNbXMv_13weaveback_api7process15run_single_passsg_0B5_
FN:426,_RNCNvNtCs9svORWNbXMv_13weaveback_api7process15run_single_passsh_0B5_
FN:153,_RNCNvNtCs9svORWNbXMv_13weaveback_api7process16compute_skip_set0B5_
FN:181,_RNCNvNtCs9svORWNbXMv_13weaveback_api7process16compute_skip_sets0_0B5_
FN:219,_RNCNvNtCs9svORWNbXMv_13weaveback_api7process16compute_skip_sets1_0B5_
FN:173,_RNCNvNtCs9svORWNbXMv_13weaveback_api7process16compute_skip_sets_0B5_
FNDA:0,_RNCNCNvNtCsaY2CvWUtqiY_13weaveback_api7process15run_single_passs1_00B7_
FNDA:0,_RNCNCNvNtCsaY2CvWUtqiY_13weaveback_api7process15run_single_passs4_00B7_
FNDA:0,_RNCNCNvNtCsaY2CvWUtqiY_13weaveback_api7process16compute_skip_set00B7_
FNDA:0,_RNCNvNtCsaY2CvWUtqiY_13weaveback_api7process10find_files0B5_
FNDA:0,_RNCNvNtCsaY2CvWUtqiY_13weaveback_api7process10find_filess_0B5_
FNDA:0,_RNCNvNtCsaY2CvWUtqiY_13weaveback_api7process15run_single_pass0B5_
FNDA:0,_RNCNvNtCsaY2CvWUtqiY_13weaveback_api7process15run_single_passs0_0B5_
FNDA:0,_RNCNvNtCsaY2CvWUtqiY_13weaveback_api7process15run_single_passs1_0B5_
FNDA:0,_RNCNvNtCsaY2CvWUtqiY_13weaveback_api7process15run_single_passs2_0B5_
FNDA:0,_RNCNvNtCsaY2CvWUtqiY_13weaveback_api7process15run_single_passs3_0B5_
FNDA:0,_RNCNvNtCsaY2CvWUtqiY_13weaveback_api7process15run_single_passs4_0B5_
FNDA:0,_RNCNvNtCsaY2CvWUtqiY_13weaveback_api7process15run_single_passs5_0B5_
FNDA:0,_RNCNvNtCsaY2CvWUtqiY_13weaveback_api7process15run_single_passs6_0B5_
FNDA:0,_RNCNvNtCsaY2CvWUtqiY_13weaveback_api7process15run_single_passs7_0B5_
FNDA:0,_RNCNvNtCsaY2CvWUtqiY_13weaveback_api7process15run_single_passs8_0B5_
FNDA:0,_RNCNvNtCsaY2CvWUtqiY_13weaveback_api7process15run_single_passs9_0B5_
FNDA:0,_RNCNvNtCsaY2CvWUtqiY_13weaveback_api7process15run_single_passs_0B5_
FNDA:0,_RNCNvNtCsaY2CvWUtqiY_13weaveback_api7process15run_single_passsa_0B5_
FNDA:0,_RNCNvNtCsaY2CvWUtqiY_13weaveback_api7process15run_single_passsb_0B5_
FNDA:0,_RNCNvNtCsaY2CvWUtqiY_13weaveback_api7process15run_single_passsc_0B5_
FNDA:0,_RNCNvNtCsaY2CvWUtqiY_13weaveback_api7process15run_single_passsd_0B5_
FNDA:0,_RNCNvNtCsaY2CvWUtqiY_13weaveback_api7process15run_single_passse_0B5_
FNDA:0,_RNCNvNtCsaY2CvWUtqiY_13weaveback_api7process15run_single_passsf_0B5_
FNDA:0,_RNCNvNtCsaY2CvWUtqiY_13weaveback_api7process15run_single_passsg_0B5_
FNDA:0,_RNCNvNtCsaY2CvWUtqiY_13weaveback_api7process15run_single_passsh_0B5_
FNDA:0,_RNCNvNtCsaY2CvWUtqiY_13weaveback_api7process16compute_skip_set0B5_
FNDA:0,_RNCNvNtCsaY2CvWUtqiY_13weaveback_api7process16compute_skip_sets0_0B5_
FNDA:0,_RNCNvNtCsaY2CvWUtqiY_13weaveback_api7process16compute_skip_sets1_0B5_
FNDA:0,_RNCNvNtCsaY2CvWUtqiY_13weaveback_api7process16compute_skip_sets_0B5_
FNDA:0,_RNvNtCsaY2CvWUtqiY_13weaveback_api7process10find_files
FNDA:0,_RNvNtCsaY2CvWUtqiY_13weaveback_api7process13write_depfile
FNDA:0,_RNvNtCsaY2CvWUtqiY_13weaveback_api7process14depfile_escape
FNDA:0,_RNvNtCsaY2CvWUtqiY_13weaveback_api7process15run_single_pass
FNDA:0,_RNvNtCsaY2CvWUtqiY_13weaveback_api7process16compute_skip_set
FNDA:1,_RNvNtNtCs9svORWNbXMv_13weaveback_api7process5testss_28run_single_pass_bench_no_fts
FNDA:1,_RNvNtNtCs9svORWNbXMv_13weaveback_api7process5testss_30run_single_pass_directory_mode
FNDA:1,_RNvNtNtCs9svORWNbXMv_13weaveback_api7process5testss_31find_files_error_on_missing_dir
FNDA:1,_RNvNtNtCs9svORWNbXMv_13weaveback_api7process5testss_33run_single_pass_depfile_and_stamp
FNDA:1,_RNvNtNtCs9svORWNbXMv_13weaveback_api7process5testss_33run_single_pass_dry_run_no_writes
FNDA:1,_RNvNtNtCs9svORWNbXMv_13weaveback_api7process5testss_33run_single_pass_with_custom_sigil
FNDA:1,_RNvNtNtCs9svORWNbXMv_13weaveback_api7process5testss_34run_single_pass_writes_output_file
FNDA:1,_RNvNtNtCs9svORWNbXMv_13weaveback_api7process5testss_35run_single_pass_error_missing_input
FNDA:1,_RNvNtNtCs9svORWNbXMv_13weaveback_api7process5testss_36run_single_pass_with_macro_expansion
FNDA:1,_RNvNtNtCs9svORWNbXMv_13weaveback_api7process5testss_36test_run_single_pass_force_generated
FNDA:1,_RNvNtNtCs9svORWNbXMv_13weaveback_api7process5testss_37find_files_returns_empty_for_no_match
FNDA:1,_RNvNtNtCs9svORWNbXMv_13weaveback_api7process5testss_37write_depfile_escapes_spaces_in_paths
FNDA:1,_RNvNtNtCs9svORWNbXMv_13weaveback_api7process5testss_38run_single_pass_respects_include_paths
FNDA:1,_RNvNtNtCs9svORWNbXMv_13weaveback_api7process5testss_38write_depfile_produces_makefile_format
FNDA:1,_RNvNtNtCs9svORWNbXMv_13weaveback_api7process5testss_39run_single_pass_with_var_defs_recording
FNDA:1,_RNvNtNtCs9svORWNbXMv_13weaveback_api7process5testss_39test_compute_skip_set_with_dependencies
FNDA:1,_RNvNtNtCs9svORWNbXMv_13weaveback_api7process5testss_40compute_skip_set_propagates_dirty_chunks
FNDA:1,_RNvNtNtCs9svORWNbXMv_13weaveback_api7process5testss_40find_files_discovers_matching_extensions
FNDA:1,_RNvNtNtCs9svORWNbXMv_13weaveback_api7process5testss_46compute_skip_set_with_no_prev_db_returns_empty
FNDA:2,_RNCNvNtNtCs9svORWNbXMv_13weaveback_api7process5testss_40find_files_discovers_matching_extensions0B7_
FNDA:2,_RNCNvNtNtCs9svORWNbXMv_13weaveback_api7process5testss_40find_files_discovers_matching_extensionss_0B7_
FNDA:13,_RNvMNtCs9svORWNbXMv_13weaveback_api7processNtB2_14SinglePassArgs16default_for_test
FNDA:6,_RNvNtCs9svORWNbXMv_13weaveback_api7process10find_files
FNDA:3,_RNvNtCs9svORWNbXMv_13weaveback_api7process13write_depfile
FNDA:7,_RNvNtCs9svORWNbXMv_13weaveback_api7process14depfile_escape
FNDA:15,_RNvNtCs9svORWNbXMv_13weaveback_api7process15run_single_pass
FNDA:16,_RNvNtCs9svORWNbXMv_13weaveback_api7process16compute_skip_set
FNDA:0,_RNCNCNvNtCs9svORWNbXMv_13weaveback_api7process15run_single_passs1_00B7_
FNDA:0,_RNCNCNvNtCs9svORWNbXMv_13weaveback_api7process15run_single_passs4_00B7_
FNDA:16,_RNCNCNvNtCs9svORWNbXMv_13weaveback_api7process16compute_skip_set00B7_
FNDA:9,_RNCNvNtCs9svORWNbXMv_13weaveback_api7process10find_files0B5_
FNDA:9,_RNCNvNtCs9svORWNbXMv_13weaveback_api7process10find_filess_0B5_
FNDA:11,_RNCNvNtCs9svORWNbXMv_13weaveback_api7process15run_single_pass0B5_
FNDA:30,_RNCNvNtCs9svORWNbXMv_13weaveback_api7process15run_single_passs0_0B5_
FNDA:0,_RNCNvNtCs9svORWNbXMv_13weaveback_api7process15run_single_passs1_0B5_
FNDA:0,_RNCNvNtCs9svORWNbXMv_13weaveback_api7process15run_single_passs2_0B5_
FNDA:0,_RNCNvNtCs9svORWNbXMv_13weaveback_api7process15run_single_passs3_0B5_
FNDA:2,_RNCNvNtCs9svORWNbXMv_13weaveback_api7process15run_single_passs4_0B5_
FNDA:14,_RNCNvNtCs9svORWNbXMv_13weaveback_api7process15run_single_passs5_0B5_
FNDA:33,_RNCNvNtCs9svORWNbXMv_13weaveback_api7process15run_single_passs6_0B5_
FNDA:1,_RNCNvNtCs9svORWNbXMv_13weaveback_api7process15run_single_passs7_0B5_
FNDA:0,_RNCNvNtCs9svORWNbXMv_13weaveback_api7process15run_single_passs8_0B5_
FNDA:0,_RNCNvNtCs9svORWNbXMv_13weaveback_api7process15run_single_passs9_0B5_
FNDA:0,_RNCNvNtCs9svORWNbXMv_13weaveback_api7process15run_single_passs_0B5_
FNDA:0,_RNCNvNtCs9svORWNbXMv_13weaveback_api7process15run_single_passsa_0B5_
FNDA:0,_RNCNvNtCs9svORWNbXMv_13weaveback_api7process15run_single_passsb_0B5_
FNDA:0,_RNCNvNtCs9svORWNbXMv_13weaveback_api7process15run_single_passsc_0B5_
FNDA:0,_RNCNvNtCs9svORWNbXMv_13weaveback_api7process15run_single_passsd_0B5_
FNDA:0,_RNCNvNtCs9svORWNbXMv_13weaveback_api7process15run_single_passse_0B5_
FNDA:0,_RNCNvNtCs9svORWNbXMv_13weaveback_api7process15run_single_passsf_0B5_
FNDA:0,_RNCNvNtCs9svORWNbXMv_13weaveback_api7process15run_single_passsg_0B5_
FNDA:0,_RNCNvNtCs9svORWNbXMv_13weaveback_api7process15run_single_passsh_0B5_
FNDA:16,_RNCNvNtCs9svORWNbXMv_13weaveback_api7process16compute_skip_set0B5_
FNDA:2,_RNCNvNtCs9svORWNbXMv_13weaveback_api7process16compute_skip_sets0_0B5_
FNDA:3,_RNCNvNtCs9svORWNbXMv_13weaveback_api7process16compute_skip_sets1_0B5_
FNDA:16,_RNCNvNtCs9svORWNbXMv_13weaveback_api7process16compute_skip_sets_0B5_
FNF:59
FNH:40
DA:78,13
DA:79,13
DA:80,13
DA:81,13
DA:82,13
DA:83,13
DA:84,13
DA:85,13
DA:86,13
DA:87,13
DA:88,13
DA:89,13
DA:90,13
DA:91,13
DA:92,13
DA:93,13
DA:94,13
DA:95,13
DA:96,13
DA:97,13
DA:98,13
DA:99,13
DA:100,13
DA:101,13
DA:102,13
DA:103,13
DA:104,13
DA:105,13
DA:106,13
DA:109,6
DA:110,11
DA:111,11
DA:112,11
DA:113,11
DA:114,2
DA:115,9
DA:116,9
DA:117,4
DA:118,4
DA:119,5
DA:121,5
DA:122,6
DA:124,7
DA:125,7
DA:126,7
DA:129,3
DA:131,3
DA:132,3
DA:133,4
DA:134,4
DA:135,4
DA:136,3
DA:137,3
DA:138,3
DA:143,16
DA:144,16
DA:145,16
DA:146,16
DA:147,16
DA:148,16
DA:151,16
DA:152,16
DA:153,16
DA:154,16
DA:155,16
DA:156,16
DA:157,16
DA:158,16
DA:159,16
DA:160,16
DA:162,16
DA:164,16
DA:165,16
DA:166,0
DA:167,0
DA:168,0
DA:169,16
DA:171,16
DA:172,16
DA:173,16
DA:174,16
DA:175,16
DA:176,16
DA:178,16
DA:179,16
DA:180,16
DA:181,16
DA:182,16
DA:184,16
DA:185,16
DA:186,16
DA:187,16
DA:188,2
DA:189,2
DA:190,0
DA:194,16
DA:195,15
DA:196,19
DA:197,4
DA:198,4
DA:199,2
DA:200,2
DA:201,2
DA:203,0
DA:205,1
DA:207,16
DA:208,0
DA:209,16
DA:211,16
DA:212,1
DA:215,15
DA:216,15
DA:217,15
DA:218,15
DA:219,15
DA:220,15
DA:221,15
DA:222,15
DA:223,15
DA:225,15
DA:226,15
DA:227,0
DA:228,0
DA:229,0
DA:230,0
DA:231,0
DA:232,0
DA:233,0
DA:234,0
DA:235,0
DA:237,15
DA:238,16
DA:245,15
DA:246,15
DA:247,15
DA:248,15
DA:249,15
DA:251,15
DA:252,15
DA:253,15
DA:254,15
DA:255,15
DA:256,15
DA:257,15
DA:259,15
DA:260,15
DA:261,15
DA:262,30
DA:263,15
DA:265,15
DA:266,15
DA:267,15
DA:268,15
DA:269,15
DA:271,15
DA:272,15
DA:273,15
DA:274,15
DA:275,15
DA:276,15
DA:277,15
DA:278,15
DA:279,15
DA:280,15
DA:281,15
DA:282,15
DA:283,15
DA:284,15
DA:285,15
DA:287,15
DA:288,15
DA:290,15
DA:291,1
DA:292,1
DA:293,1
DA:295,1
DA:296,2
DA:297,2
DA:298,2
DA:299,2
DA:300,2
DA:301,0
DA:302,0
DA:303,0
DA:304,0
DA:306,1
DA:307,1
DA:308,2
DA:309,2
DA:310,2
DA:311,2
DA:312,1
DA:313,1
DA:314,1
DA:316,14
DA:317,14
DA:320,15
DA:321,15
DA:323,0
DA:326,33
DA:327,33
DA:328,8
DA:330,25
DA:332,33
DA:334,15
DA:335,16
DA:336,16
DA:337,15
DA:338,15
DA:340,15
DA:341,15
DA:342,15
DA:343,15
DA:344,15
DA:345,15
DA:346,15
DA:347,15
DA:349,15
DA:350,9
DA:351,9
DA:352,6
DA:353,6
DA:354,6
DA:355,0
DA:356,0
DA:357,0
DA:358,6
DA:359,6
DA:361,6
DA:362,6
DA:363,6
DA:364,6
DA:365,3
DA:366,3
DA:367,3
DA:368,0
DA:370,6
DA:371,0
DA:372,0
DA:373,0
DA:374,0
DA:379,14
DA:380,1
DA:381,1
DA:382,1
DA:383,1
DA:384,13
DA:386,13
DA:387,13
DA:390,13
DA:391,7
DA:393,6
DA:395,15
DA:396,15
DA:397,15
DA:398,15
DA:399,0
DA:403,13
DA:406,13
DA:407,13
DA:408,13
DA:409,0
DA:410,13
DA:411,0
DA:412,0
DA:413,13
DA:414,1
DA:415,0
DA:416,0
DA:417,1
DA:418,0
DA:419,0
DA:421,1
DA:422,1
DA:423,12
DA:424,0
DA:425,13
DA:426,1
DA:427,12
DA:428,0
DA:429,0
DA:430,15
DA:431,0
DA:432,0
DA:438,1
DA:439,1
DA:440,1
DA:441,1
DA:442,1
DA:443,1
DA:444,1
DA:446,1
DA:447,1
DA:448,1
DA:449,1
DA:450,1
DA:451,2
DA:452,2
DA:453,1
DA:456,1
DA:457,1
DA:458,1
DA:459,1
DA:460,1
DA:461,1
DA:462,1
DA:465,1
DA:466,1
DA:467,1
DA:468,1
DA:469,1
DA:470,1
DA:471,1
DA:473,1
DA:474,1
DA:475,1
DA:476,1
DA:477,1
DA:478,1
DA:479,1
DA:482,1
DA:483,1
DA:484,1
DA:485,1
DA:486,1
DA:487,1
DA:488,1
DA:489,1
DA:490,1
DA:491,1
DA:494,1
DA:495,1
DA:496,1
DA:497,1
DA:498,1
DA:499,1
DA:502,1
DA:503,1
DA:504,1
DA:505,1
DA:506,1
DA:508,1
DA:510,1
DA:511,1
DA:512,1
DA:513,1
DA:514,1
DA:515,1
DA:516,1
DA:517,1
DA:518,1
DA:519,1
DA:520,1
DA:521,1
DA:522,1
DA:523,1
DA:524,1
DA:525,1
DA:526,1
DA:527,1
DA:528,1
DA:529,1
DA:530,1
DA:531,1
DA:532,1
DA:533,1
DA:534,1
DA:535,1
DA:536,1
DA:537,1
DA:538,1
DA:539,1
DA:540,1
DA:541,1
DA:544,1
DA:545,1
DA:546,1
DA:547,1
DA:548,1
DA:550,1
DA:551,1
DA:552,1
DA:554,1
DA:555,1
DA:556,1
DA:557,1
DA:558,1
DA:559,1
DA:560,1
DA:561,1
DA:562,1
DA:563,1
DA:564,1
DA:565,1
DA:566,1
DA:567,1
DA:568,1
DA:569,1
DA:570,1
DA:571,1
DA:572,1
DA:573,1
DA:574,1
DA:575,1
DA:576,1
DA:577,1
DA:578,1
DA:579,1
DA:580,1
DA:581,1
DA:582,1
DA:583,1
DA:586,1
DA:589,1
DA:590,1
DA:591,1
DA:592,1
DA:593,1
DA:595,1
DA:596,1
DA:598,1
DA:599,1
DA:601,1
DA:602,1
DA:603,1
DA:604,1
DA:605,1
DA:606,1
DA:607,1
DA:608,1
DA:609,1
DA:610,1
DA:611,1
DA:613,1
DA:614,1
DA:615,1
DA:619,1
DA:620,1
DA:621,1
DA:623,1
DA:625,1
DA:626,1
DA:628,1
DA:629,1
DA:630,1
DA:631,1
DA:632,1
DA:633,1
DA:634,1
DA:635,1
DA:636,1
DA:637,1
DA:638,1
DA:639,1
DA:640,1
DA:641,1
DA:643,1
DA:644,1
DA:645,1
DA:648,1
DA:649,1
DA:650,1
DA:652,1
DA:654,1
DA:655,1
DA:656,1
DA:657,1
DA:658,1
DA:659,1
DA:660,1
DA:661,1
DA:662,1
DA:663,1
DA:664,1
DA:665,1
DA:666,1
DA:667,1
DA:668,1
DA:669,1
DA:670,1
DA:673,1
DA:674,1
DA:675,1
DA:676,1
DA:677,1
DA:678,1
DA:679,1
DA:680,1
DA:682,1
DA:683,1
DA:687,1
DA:689,1
DA:693,1
DA:694,1
DA:695,1
DA:698,1
DA:699,1
DA:700,1
DA:701,1
DA:702,1
DA:703,1
DA:705,1
DA:706,1
DA:708,1
DA:709,1
DA:710,1
DA:711,1
DA:712,1
DA:713,1
DA:714,1
DA:715,1
DA:716,1
DA:718,1
DA:719,1
DA:720,1
DA:723,1
DA:724,1
DA:725,1
DA:726,1
DA:728,1
DA:729,1
DA:730,1
DA:731,1
DA:733,1
DA:734,1
DA:735,1
DA:736,1
DA:737,1
DA:738,1
DA:739,1
DA:740,1
DA:741,1
DA:742,1
DA:743,1
DA:745,1
DA:746,1
DA:747,1
DA:748,1
DA:749,1
DA:752,1
DA:753,1
DA:754,1
DA:755,1
DA:757,1
DA:758,1
DA:760,1
DA:761,1
DA:762,1
DA:763,1
DA:764,1
DA:765,1
DA:766,1
DA:767,1
DA:768,1
DA:769,1
DA:771,1
DA:772,1
DA:775,1
DA:776,1
DA:777,1
DA:778,1
DA:779,1
DA:780,1
DA:781,1
DA:782,1
DA:783,1
DA:784,1
DA:785,1
DA:786,1
DA:787,1
DA:788,1
DA:789,1
DA:792,1
DA:793,1
DA:794,1
DA:795,1
DA:797,1
DA:798,1
DA:800,1
DA:801,1
DA:802,1
DA:803,1
DA:804,1
DA:805,1
DA:806,1
DA:807,1
DA:808,1
DA:809,1
DA:810,1
DA:811,1
DA:812,1
DA:815,1
DA:816,1
DA:817,1
DA:818,1
DA:820,1
DA:821,1
DA:822,1
DA:823,1
DA:824,1
DA:825,1
DA:826,1
DA:827,1
DA:828,1
DA:829,1
DA:830,1
DA:832,1
DA:833,1
DA:834,1
DA:835,1
DA:836,1
DA:839,1
DA:840,1
DA:841,1
DA:842,1
DA:845,1
DA:846,1
DA:847,1
DA:848,1
DA:850,1
DA:851,1
DA:852,1
DA:853,1
DA:854,1
DA:855,1
DA:856,1
DA:857,1
DA:858,1
DA:859,1
DA:860,1
DA:861,1
DA:863,1
DA:864,1
DA:866,1
DA:867,1
DA:871,1
DA:872,1
DA:873,1
DA:876,1
DA:878,1
DA:879,1
DA:880,1
DA:881,1
DA:882,1
DA:883,1
DA:884,1
DA:885,1
DA:886,1
DA:887,1
DA:888,1
DA:889,1
DA:890,1
BRF:0
BRH:0
LF:682
LH:628
end_of_record
SF:/home/g4/_prj/weaveback/crates/weaveback-api/src/query.rs
FN:73,_RNvNtCsaY2CvWUtqiY_13weaveback_api5query15chunk_graph_dot
FN:33,_RNvNtCsaY2CvWUtqiY_13weaveback_api5query15impact_analysis
FN:109,_RNvNtCsaY2CvWUtqiY_13weaveback_api5query15list_block_tags
FN:68,_RNvNtCsaY2CvWUtqiY_13weaveback_api5query6dot_id
FN:15,_RNvNtCsaY2CvWUtqiY_13weaveback_api5query7open_db
FN:97,_RNCNvNtCsaY2CvWUtqiY_13weaveback_api5query15chunk_graph_dot0B5_
FN:114,_RNCNvNtCsaY2CvWUtqiY_13weaveback_api5query15list_block_tags0B5_
FN:122,_RNvNtNtCs9svORWNbXMv_13weaveback_api5query5tests7make_db
FN:129,_RNvNtNtCs9svORWNbXMv_13weaveback_api5query5testss_21dot_id_escapes_quotes
FN:134,_RNvNtNtCs9svORWNbXMv_13weaveback_api5query5testss_26dot_id_escapes_backslashes
FN:144,_RNvNtNtCs9svORWNbXMv_13weaveback_api5query5testss_32open_db_errors_when_file_missing
FN:139,_RNvNtNtCs9svORWNbXMv_13weaveback_api5query5testss_35dot_id_plain_name_wrapped_in_quotes
FN:194,_RNvNtNtCs9svORWNbXMv_13weaveback_api5query5testss_39chunk_graph_dot_none_includes_all_edges
FN:210,_RNvNtNtCs9svORWNbXMv_13weaveback_api5query5testss_41impact_analysis_traverses_transitive_deps
FN:245,_RNvNtNtCs9svORWNbXMv_13weaveback_api5query5testss_42list_block_tags_returns_empty_for_fresh_db
FN:229,_RNvNtNtCs9svORWNbXMv_13weaveback_api5query5testss_45impact_analysis_avoids_infinite_loop_on_cycle
FN:175,_RNvNtNtCs9svORWNbXMv_13weaveback_api5query5testss_47chunk_graph_dot_with_chunk_filter_traverses_bfs
FN:156,_RNvNtNtCs9svORWNbXMv_13weaveback_api5query5testss_47impact_analysis_returns_empty_for_unknown_chunk
FN:166,_RNvNtNtCs9svORWNbXMv_13weaveback_api5query5testss_48chunk_graph_dot_returns_empty_graph_for_fresh_db
FN:253,_RNvNtNtCs9svORWNbXMv_13weaveback_api5query5testss_54list_block_tags_with_filter_returns_empty_for_fresh_db
FN:73,_RNvNtCs9svORWNbXMv_13weaveback_api5query15chunk_graph_dot
FN:33,_RNvNtCs9svORWNbXMv_13weaveback_api5query15impact_analysis
FN:109,_RNvNtCs9svORWNbXMv_13weaveback_api5query15list_block_tags
FN:68,_RNvNtCs9svORWNbXMv_13weaveback_api5query6dot_id
FN:15,_RNvNtCs9svORWNbXMv_13weaveback_api5query7open_db
FN:223,_RNCNvNtNtCs9svORWNbXMv_13weaveback_api5query5testss_41impact_analysis_traverses_transitive_deps0B7_
FN:97,_RNCNvNtCs9svORWNbXMv_13weaveback_api5query15chunk_graph_dot0B5_
FN:114,_RNCNvNtCs9svORWNbXMv_13weaveback_api5query15list_block_tags0B5_
FNDA:0,_RNvNtCsaY2CvWUtqiY_13weaveback_api5query15chunk_graph_dot
FNDA:0,_RNvNtCsaY2CvWUtqiY_13weaveback_api5query15impact_analysis
FNDA:0,_RNvNtCsaY2CvWUtqiY_13weaveback_api5query15list_block_tags
FNDA:0,_RNvNtCsaY2CvWUtqiY_13weaveback_api5query6dot_id
FNDA:0,_RNvNtCsaY2CvWUtqiY_13weaveback_api5query7open_db
FNDA:0,_RNCNvNtCsaY2CvWUtqiY_13weaveback_api5query15chunk_graph_dot0B5_
FNDA:0,_RNCNvNtCsaY2CvWUtqiY_13weaveback_api5query15list_block_tags0B5_
FNDA:8,_RNvNtNtCs9svORWNbXMv_13weaveback_api5query5tests7make_db
FNDA:1,_RNvNtNtCs9svORWNbXMv_13weaveback_api5query5testss_21dot_id_escapes_quotes
FNDA:1,_RNvNtNtCs9svORWNbXMv_13weaveback_api5query5testss_26dot_id_escapes_backslashes
FNDA:1,_RNvNtNtCs9svORWNbXMv_13weaveback_api5query5testss_32open_db_errors_when_file_missing
FNDA:1,_RNvNtNtCs9svORWNbXMv_13weaveback_api5query5testss_35dot_id_plain_name_wrapped_in_quotes
FNDA:1,_RNvNtNtCs9svORWNbXMv_13weaveback_api5query5testss_39chunk_graph_dot_none_includes_all_edges
FNDA:1,_RNvNtNtCs9svORWNbXMv_13weaveback_api5query5testss_41impact_analysis_traverses_transitive_deps
FNDA:1,_RNvNtNtCs9svORWNbXMv_13weaveback_api5query5testss_42list_block_tags_returns_empty_for_fresh_db
FNDA:1,_RNvNtNtCs9svORWNbXMv_13weaveback_api5query5testss_45impact_analysis_avoids_infinite_loop_on_cycle
FNDA:1,_RNvNtNtCs9svORWNbXMv_13weaveback_api5query5testss_47chunk_graph_dot_with_chunk_filter_traverses_bfs
FNDA:1,_RNvNtNtCs9svORWNbXMv_13weaveback_api5query5testss_47impact_analysis_returns_empty_for_unknown_chunk
FNDA:1,_RNvNtNtCs9svORWNbXMv_13weaveback_api5query5testss_48chunk_graph_dot_returns_empty_graph_for_fresh_db
FNDA:1,_RNvNtNtCs9svORWNbXMv_13weaveback_api5query5testss_54list_block_tags_with_filter_returns_empty_for_fresh_db
FNDA:4,_RNvNtCs9svORWNbXMv_13weaveback_api5query15chunk_graph_dot
FNDA:4,_RNvNtCs9svORWNbXMv_13weaveback_api5query15impact_analysis
FNDA:3,_RNvNtCs9svORWNbXMv_13weaveback_api5query15list_block_tags
FNDA:11,_RNvNtCs9svORWNbXMv_13weaveback_api5query6dot_id
FNDA:9,_RNvNtCs9svORWNbXMv_13weaveback_api5query7open_db
FNDA:2,_RNCNvNtNtCs9svORWNbXMv_13weaveback_api5query5testss_41impact_analysis_traverses_transitive_deps0B7_
FNDA:2,_RNCNvNtCs9svORWNbXMv_13weaveback_api5query15chunk_graph_dot0B5_
FNDA:1,_RNCNvNtCs9svORWNbXMv_13weaveback_api5query15list_block_tags0B5_
FNF:21
FNH:21
DA:15,9
DA:16,9
DA:17,3
DA:18,3
DA:19,3
DA:20,3
DA:21,3
DA:22,3
DA:23,3
DA:24,6
DA:25,6
DA:26,9
DA:33,4
DA:34,4
DA:35,4
DA:36,4
DA:37,4
DA:39,3
DA:40,3
DA:41,3
DA:42,3
DA:43,3
DA:44,9
DA:45,6
DA:46,4
DA:47,3
DA:48,3
DA:49,3
DA:53,3
DA:54,6
DA:55,6
DA:56,0
DA:57,0
DA:59,3
DA:60,3
DA:62,3
DA:63,3
DA:64,3
DA:65,3
DA:66,3
DA:67,4
DA:68,11
DA:69,11
DA:70,11
DA:73,4
DA:74,4
DA:75,4
DA:76,4
DA:77,4
DA:79,3
DA:80,1
DA:81,1
DA:82,1
DA:83,1
DA:84,1
DA:85,4
DA:86,3
DA:87,2
DA:88,2
DA:89,2
DA:90,2
DA:93,1
DA:95,2
DA:96,2
DA:97,2
DA:98,2
DA:101,3
DA:102,4
DA:103,4
DA:104,4
DA:105,3
DA:106,3
DA:107,4
DA:109,3
DA:110,3
DA:111,3
DA:112,3
DA:113,3
DA:114,3
DA:115,2
DA:116,3
DA:122,8
DA:123,8
DA:124,8
DA:125,8
DA:126,8
DA:129,1
DA:130,1
DA:131,1
DA:134,1
DA:135,1
DA:136,1
DA:139,1
DA:140,1
DA:141,1
DA:144,1
DA:145,1
DA:146,1
DA:147,1
DA:148,1
DA:149,1
DA:150,1
DA:153,1
DA:156,1
DA:157,1
DA:158,1
DA:159,1
DA:160,1
DA:161,1
DA:162,1
DA:163,1
DA:166,1
DA:167,1
DA:168,1
DA:169,1
DA:170,1
DA:171,1
DA:172,1
DA:175,1
DA:176,1
DA:177,1
DA:178,1
DA:179,1
DA:180,1
DA:181,1
DA:182,1
DA:183,1
DA:184,1
DA:186,1
DA:187,1
DA:188,1
DA:190,1
DA:191,1
DA:194,1
DA:195,1
DA:196,1
DA:197,1
DA:198,1
DA:199,1
DA:200,1
DA:201,1
DA:202,1
DA:204,1
DA:205,1
DA:206,1
DA:207,1
DA:210,1
DA:211,1
DA:212,1
DA:213,1
DA:214,1
DA:215,1
DA:216,1
DA:217,1
DA:218,1
DA:220,1
DA:221,1
DA:222,1
DA:223,2
DA:224,1
DA:225,1
DA:226,1
DA:229,1
DA:230,1
DA:231,1
DA:232,1
DA:233,1
DA:234,1
DA:235,1
DA:236,1
DA:237,1
DA:240,1
DA:241,1
DA:242,1
DA:245,1
DA:246,1
DA:247,1
DA:248,1
DA:249,1
DA:250,1
DA:253,1
DA:254,1
DA:255,1
DA:256,1
DA:257,1
DA:258,1
BRF:0
BRH:0
LF:189
LH:187
end_of_record
SF:/home/g4/_prj/weaveback/crates/weaveback-api/src/semantic.rs
FN:122,_RNCNCNCNvNtCsaY2CvWUtqiY_13weaveback_api8semantic31parse_gemini_embedding_responses_0s_00B9_
FN:123,_RNCNCNCNvNtCsaY2CvWUtqiY_13weaveback_api8semantic31parse_gemini_embedding_responses_0s_0s_0B9_
FN:62,_RNCNCNCNvNtCsaY2CvWUtqiY_13weaveback_api8semantic31parse_openai_embedding_responses_0s_00B9_
FN:63,_RNCNCNCNvNtCsaY2CvWUtqiY_13weaveback_api8semantic31parse_openai_embedding_responses_0s_0s_0B9_
FN:118,_RNCNCNvNtCsaY2CvWUtqiY_13weaveback_api8semantic31parse_gemini_embedding_responses_00B7_
FN:122,_RNCNCNvNtCsaY2CvWUtqiY_13weaveback_api8semantic31parse_gemini_embedding_responses_0s_0B7_
FN:58,_RNCNCNvNtCsaY2CvWUtqiY_13weaveback_api8semantic31parse_openai_embedding_responses_00B7_
FN:62,_RNCNCNvNtCsaY2CvWUtqiY_13weaveback_api8semantic31parse_openai_embedding_responses_0s_0B7_
FN:151,_RNCNvNtCsaY2CvWUtqiY_13weaveback_api8semantic11embed_texts0B5_
FN:223,_RNCNvNtCsaY2CvWUtqiY_13weaveback_api8semantic14run_auto_embed0B5_
FN:140,_RNCNvNtCsaY2CvWUtqiY_13weaveback_api8semantic22call_gemini_embeddings0B5_
FN:141,_RNCNvNtCsaY2CvWUtqiY_13weaveback_api8semantic22call_gemini_embeddingss_0B5_
FN:83,_RNCNvNtCsaY2CvWUtqiY_13weaveback_api8semantic22call_openai_embeddings0B5_
FN:84,_RNCNvNtCsaY2CvWUtqiY_13weaveback_api8semantic22call_openai_embeddingss_0B5_
FN:25,_RNCNvNtCsaY2CvWUtqiY_13weaveback_api8semantic24persist_embedding_config0B5_
FN:30,_RNCNvNtCsaY2CvWUtqiY_13weaveback_api8semantic24persist_embedding_configs0_0B5_
FN:34,_RNCNvNtCsaY2CvWUtqiY_13weaveback_api8semantic24persist_embedding_configs1_0B5_
FN:26,_RNCNvNtCsaY2CvWUtqiY_13weaveback_api8semantic24persist_embedding_configs_0B5_
FN:101,_RNCNvNtCsaY2CvWUtqiY_13weaveback_api8semantic30build_gemini_embedding_request0B5_
FN:113,_RNCNvNtCsaY2CvWUtqiY_13weaveback_api8semantic31parse_gemini_embedding_response0B5_
FN:117,_RNCNvNtCsaY2CvWUtqiY_13weaveback_api8semantic31parse_gemini_embedding_responses_0B5_
FN:53,_RNCNvNtCsaY2CvWUtqiY_13weaveback_api8semantic31parse_openai_embedding_response0B5_
FN:57,_RNCNvNtCsaY2CvWUtqiY_13weaveback_api8semantic31parse_openai_embedding_responses_0B5_
FN:147,_RNvNtCsaY2CvWUtqiY_13weaveback_api8semantic11embed_texts
FN:181,_RNvNtCsaY2CvWUtqiY_13weaveback_api8semantic14run_auto_embed
FN:171,_RNvNtCsaY2CvWUtqiY_13weaveback_api8semantic18extract_block_text
FN:129,_RNvNtCsaY2CvWUtqiY_13weaveback_api8semantic22call_gemini_embeddings
FN:69,_RNvNtCsaY2CvWUtqiY_13weaveback_api8semantic22call_openai_embeddings
FN:18,_RNvNtCsaY2CvWUtqiY_13weaveback_api8semantic24default_embeddings_model
FN:21,_RNvNtCsaY2CvWUtqiY_13weaveback_api8semantic24persist_embedding_config
FN:17,_RNvNtCsaY2CvWUtqiY_13weaveback_api8semantic26default_embeddings_backend
FN:19,_RNvNtCsaY2CvWUtqiY_13weaveback_api8semantic29default_embeddings_batch_size
FN:90,_RNvNtCsaY2CvWUtqiY_13weaveback_api8semantic30build_gemini_embedding_request
FN:40,_RNvNtCsaY2CvWUtqiY_13weaveback_api8semantic30build_openai_embedding_request
FN:110,_RNvNtCsaY2CvWUtqiY_13weaveback_api8semantic31parse_gemini_embedding_response
FN:50,_RNvNtCsaY2CvWUtqiY_13weaveback_api8semantic31parse_openai_embedding_response
FN:122,_RNCNCNCNvNtCs9svORWNbXMv_13weaveback_api8semantic31parse_gemini_embedding_responses_0s_00B9_
FN:123,_RNCNCNCNvNtCs9svORWNbXMv_13weaveback_api8semantic31parse_gemini_embedding_responses_0s_0s_0B9_
FN:62,_RNCNCNCNvNtCs9svORWNbXMv_13weaveback_api8semantic31parse_openai_embedding_responses_0s_00B9_
FN:63,_RNCNCNCNvNtCs9svORWNbXMv_13weaveback_api8semantic31parse_openai_embedding_responses_0s_0s_0B9_
FN:118,_RNCNCNvNtCs9svORWNbXMv_13weaveback_api8semantic31parse_gemini_embedding_responses_00B7_
FN:122,_RNCNCNvNtCs9svORWNbXMv_13weaveback_api8semantic31parse_gemini_embedding_responses_0s_0B7_
FN:58,_RNCNCNvNtCs9svORWNbXMv_13weaveback_api8semantic31parse_openai_embedding_responses_00B7_
FN:62,_RNCNCNvNtCs9svORWNbXMv_13weaveback_api8semantic31parse_openai_embedding_responses_0s_0B7_
FN:151,_RNCNvNtCs9svORWNbXMv_13weaveback_api8semantic11embed_texts0B5_
FN:223,_RNCNvNtCs9svORWNbXMv_13weaveback_api8semantic14run_auto_embed0B5_
FN:140,_RNCNvNtCs9svORWNbXMv_13weaveback_api8semantic22call_gemini_embeddings0B5_
FN:141,_RNCNvNtCs9svORWNbXMv_13weaveback_api8semantic22call_gemini_embeddingss_0B5_
FN:83,_RNCNvNtCs9svORWNbXMv_13weaveback_api8semantic22call_openai_embeddings0B5_
FN:84,_RNCNvNtCs9svORWNbXMv_13weaveback_api8semantic22call_openai_embeddingss_0B5_
FN:25,_RNCNvNtCs9svORWNbXMv_13weaveback_api8semantic24persist_embedding_config0B5_
FN:30,_RNCNvNtCs9svORWNbXMv_13weaveback_api8semantic24persist_embedding_configs0_0B5_
FN:34,_RNCNvNtCs9svORWNbXMv_13weaveback_api8semantic24persist_embedding_configs1_0B5_
FN:26,_RNCNvNtCs9svORWNbXMv_13weaveback_api8semantic24persist_embedding_configs_0B5_
FN:101,_RNCNvNtCs9svORWNbXMv_13weaveback_api8semantic30build_gemini_embedding_request0B5_
FN:113,_RNCNvNtCs9svORWNbXMv_13weaveback_api8semantic31parse_gemini_embedding_response0B5_
FN:117,_RNCNvNtCs9svORWNbXMv_13weaveback_api8semantic31parse_gemini_embedding_responses_0B5_
FN:53,_RNCNvNtCs9svORWNbXMv_13weaveback_api8semantic31parse_openai_embedding_response0B5_
FN:57,_RNCNvNtCs9svORWNbXMv_13weaveback_api8semantic31parse_openai_embedding_responses_0B5_
FN:147,_RNvNtCs9svORWNbXMv_13weaveback_api8semantic11embed_texts
FN:181,_RNvNtCs9svORWNbXMv_13weaveback_api8semantic14run_auto_embed
FN:171,_RNvNtCs9svORWNbXMv_13weaveback_api8semantic18extract_block_text
FN:129,_RNvNtCs9svORWNbXMv_13weaveback_api8semantic22call_gemini_embeddings
FN:69,_RNvNtCs9svORWNbXMv_13weaveback_api8semantic22call_openai_embeddings
FN:18,_RNvNtCs9svORWNbXMv_13weaveback_api8semantic24default_embeddings_model
FN:21,_RNvNtCs9svORWNbXMv_13weaveback_api8semantic24persist_embedding_config
FN:17,_RNvNtCs9svORWNbXMv_13weaveback_api8semantic26default_embeddings_backend
FN:19,_RNvNtCs9svORWNbXMv_13weaveback_api8semantic29default_embeddings_batch_size
FN:90,_RNvNtCs9svORWNbXMv_13weaveback_api8semantic30build_gemini_embedding_request
FN:40,_RNvNtCs9svORWNbXMv_13weaveback_api8semantic30build_openai_embedding_request
FN:110,_RNvNtCs9svORWNbXMv_13weaveback_api8semantic31parse_gemini_embedding_response
FN:50,_RNvNtCs9svORWNbXMv_13weaveback_api8semantic31parse_openai_embedding_response
FN:391,_RNvNtNtCs9svORWNbXMv_13weaveback_api8semantic5testss_27test_run_auto_embed_success
FN:329,_RNvNtNtCs9svORWNbXMv_13weaveback_api8semantic5testss_30extract_block_text_single_line
FN:362,_RNvNtNtCs9svORWNbXMv_13weaveback_api8semantic5testss_36default_embeddings_model_is_nonempty
FN:343,_RNvNtNtCs9svORWNbXMv_13weaveback_api8semantic5testss_37embed_texts_rejects_anthropic_backend
FN:357,_RNvNtNtCs9svORWNbXMv_13weaveback_api8semantic5testss_38default_embeddings_backend_is_nonempty
FN:259,_RNvNtNtCs9svORWNbXMv_13weaveback_api8semantic5testss_40build_openai_embedding_request_forms_url
FN:502,_RNvNtNtCs9svORWNbXMv_13weaveback_api8semantic5testss_40test_run_auto_embed_skips_when_no_blocks
FN:367,_RNvNtNtCs9svORWNbXMv_13weaveback_api8semantic5testss_41default_embeddings_batch_size_is_positive
FN:322,_RNvNtNtCs9svORWNbXMv_13weaveback_api8semantic5testss_42extract_block_text_returns_requested_range
FN:374,_RNvNtNtCs9svORWNbXMv_13weaveback_api8semantic5testss_42persist_embedding_config_stores_all_fields
FN:488,_RNvNtNtCs9svORWNbXMv_13weaveback_api8semantic5testss_43test_embed_texts_dispatches_openai_with_key
FN:335,_RNvNtNtCs9svORWNbXMv_13weaveback_api8semantic5testss_45extract_block_text_out_of_range_returns_empty
FN:447,_RNvNtNtCs9svORWNbXMv_13weaveback_api8semantic5testss_45test_run_auto_embed_normalises_snapshot_paths
FN:295,_RNvNtNtCs9svORWNbXMv_13weaveback_api8semantic5testss_48build_gemini_embedding_request_embeds_key_in_url
FN:304,_RNvNtNtCs9svORWNbXMv_13weaveback_api8semantic5testss_48parse_gemini_embedding_response_extracts_vectors
FN:279,_RNvNtNtCs9svORWNbXMv_13weaveback_api8semantic5testss_48parse_openai_embedding_response_extracts_vectors
FN:270,_RNvNtNtCs9svORWNbXMv_13weaveback_api8semantic5testss_51build_openai_embedding_request_trims_trailing_slash
FN:314,_RNvNtNtCs9svORWNbXMv_13weaveback_api8semantic5testss_51parse_gemini_embedding_response_errors_on_bad_shape
FN:289,_RNvNtNtCs9svORWNbXMv_13weaveback_api8semantic5testss_51parse_openai_embedding_response_errors_on_bad_shape
FN:475,_RNvNtNtCs9svORWNbXMv_13weaveback_api8semantic5testss_58test_embed_texts_dispatches_gemini_errors_when_key_missing
FNDA:0,_RNCNCNCNvNtCsaY2CvWUtqiY_13weaveback_api8semantic31parse_gemini_embedding_responses_0s_00B9_
FNDA:0,_RNCNCNCNvNtCsaY2CvWUtqiY_13weaveback_api8semantic31parse_gemini_embedding_responses_0s_0s_0B9_
FNDA:0,_RNCNCNCNvNtCsaY2CvWUtqiY_13weaveback_api8semantic31parse_openai_embedding_responses_0s_00B9_
FNDA:0,_RNCNCNCNvNtCsaY2CvWUtqiY_13weaveback_api8semantic31parse_openai_embedding_responses_0s_0s_0B9_
FNDA:0,_RNCNCNvNtCsaY2CvWUtqiY_13weaveback_api8semantic31parse_gemini_embedding_responses_00B7_
FNDA:0,_RNCNCNvNtCsaY2CvWUtqiY_13weaveback_api8semantic31parse_gemini_embedding_responses_0s_0B7_
FNDA:0,_RNCNCNvNtCsaY2CvWUtqiY_13weaveback_api8semantic31parse_openai_embedding_responses_00B7_
FNDA:0,_RNCNCNvNtCsaY2CvWUtqiY_13weaveback_api8semantic31parse_openai_embedding_responses_0s_0B7_
FNDA:0,_RNCNvNtCsaY2CvWUtqiY_13weaveback_api8semantic11embed_texts0B5_
FNDA:0,_RNCNvNtCsaY2CvWUtqiY_13weaveback_api8semantic14run_auto_embed0B5_
FNDA:0,_RNCNvNtCsaY2CvWUtqiY_13weaveback_api8semantic22call_gemini_embeddings0B5_
FNDA:0,_RNCNvNtCsaY2CvWUtqiY_13weaveback_api8semantic22call_gemini_embeddingss_0B5_
FNDA:0,_RNCNvNtCsaY2CvWUtqiY_13weaveback_api8semantic22call_openai_embeddings0B5_
FNDA:0,_RNCNvNtCsaY2CvWUtqiY_13weaveback_api8semantic22call_openai_embeddingss_0B5_
FNDA:0,_RNCNvNtCsaY2CvWUtqiY_13weaveback_api8semantic24persist_embedding_config0B5_
FNDA:0,_RNCNvNtCsaY2CvWUtqiY_13weaveback_api8semantic24persist_embedding_configs0_0B5_
FNDA:0,_RNCNvNtCsaY2CvWUtqiY_13weaveback_api8semantic24persist_embedding_configs1_0B5_
FNDA:0,_RNCNvNtCsaY2CvWUtqiY_13weaveback_api8semantic24persist_embedding_configs_0B5_
FNDA:0,_RNCNvNtCsaY2CvWUtqiY_13weaveback_api8semantic30build_gemini_embedding_request0B5_
FNDA:0,_RNCNvNtCsaY2CvWUtqiY_13weaveback_api8semantic31parse_gemini_embedding_response0B5_
FNDA:0,_RNCNvNtCsaY2CvWUtqiY_13weaveback_api8semantic31parse_gemini_embedding_responses_0B5_
FNDA:0,_RNCNvNtCsaY2CvWUtqiY_13weaveback_api8semantic31parse_openai_embedding_response0B5_
FNDA:0,_RNCNvNtCsaY2CvWUtqiY_13weaveback_api8semantic31parse_openai_embedding_responses_0B5_
FNDA:0,_RNvNtCsaY2CvWUtqiY_13weaveback_api8semantic11embed_texts
FNDA:0,_RNvNtCsaY2CvWUtqiY_13weaveback_api8semantic14run_auto_embed
FNDA:0,_RNvNtCsaY2CvWUtqiY_13weaveback_api8semantic18extract_block_text
FNDA:0,_RNvNtCsaY2CvWUtqiY_13weaveback_api8semantic22call_gemini_embeddings
FNDA:0,_RNvNtCsaY2CvWUtqiY_13weaveback_api8semantic22call_openai_embeddings
FNDA:0,_RNvNtCsaY2CvWUtqiY_13weaveback_api8semantic24default_embeddings_model
FNDA:0,_RNvNtCsaY2CvWUtqiY_13weaveback_api8semantic24persist_embedding_config
FNDA:0,_RNvNtCsaY2CvWUtqiY_13weaveback_api8semantic26default_embeddings_backend
FNDA:0,_RNvNtCsaY2CvWUtqiY_13weaveback_api8semantic29default_embeddings_batch_size
FNDA:0,_RNvNtCsaY2CvWUtqiY_13weaveback_api8semantic30build_gemini_embedding_request
FNDA:0,_RNvNtCsaY2CvWUtqiY_13weaveback_api8semantic30build_openai_embedding_request
FNDA:0,_RNvNtCsaY2CvWUtqiY_13weaveback_api8semantic31parse_gemini_embedding_response
FNDA:0,_RNvNtCsaY2CvWUtqiY_13weaveback_api8semantic31parse_openai_embedding_response
FNDA:2,_RNCNCNCNvNtCs9svORWNbXMv_13weaveback_api8semantic31parse_gemini_embedding_responses_0s_00B9_
FNDA:0,_RNCNCNCNvNtCs9svORWNbXMv_13weaveback_api8semantic31parse_gemini_embedding_responses_0s_0s_0B9_
FNDA:35,_RNCNCNCNvNtCs9svORWNbXMv_13weaveback_api8semantic31parse_openai_embedding_responses_0s_00B9_
FNDA:0,_RNCNCNCNvNtCs9svORWNbXMv_13weaveback_api8semantic31parse_openai_embedding_responses_0s_0s_0B9_
FNDA:1,_RNCNCNvNtCs9svORWNbXMv_13weaveback_api8semantic31parse_gemini_embedding_responses_00B7_
FNDA:2,_RNCNCNvNtCs9svORWNbXMv_13weaveback_api8semantic31parse_gemini_embedding_responses_0s_0B7_
FNDA:2,_RNCNCNvNtCs9svORWNbXMv_13weaveback_api8semantic31parse_openai_embedding_responses_00B7_
FNDA:35,_RNCNCNvNtCs9svORWNbXMv_13weaveback_api8semantic31parse_openai_embedding_responses_0s_0B7_
FNDA:1,_RNCNvNtCs9svORWNbXMv_13weaveback_api8semantic11embed_texts0B5_
FNDA:1,_RNCNvNtCs9svORWNbXMv_13weaveback_api8semantic14run_auto_embed0B5_
FNDA:0,_RNCNvNtCs9svORWNbXMv_13weaveback_api8semantic22call_gemini_embeddings0B5_
FNDA:0,_RNCNvNtCs9svORWNbXMv_13weaveback_api8semantic22call_gemini_embeddingss_0B5_
FNDA:1,_RNCNvNtCs9svORWNbXMv_13weaveback_api8semantic22call_openai_embeddings0B5_
FNDA:0,_RNCNvNtCs9svORWNbXMv_13weaveback_api8semantic22call_openai_embeddingss_0B5_
FNDA:0,_RNCNvNtCs9svORWNbXMv_13weaveback_api8semantic24persist_embedding_config0B5_
FNDA:0,_RNCNvNtCs9svORWNbXMv_13weaveback_api8semantic24persist_embedding_configs0_0B5_
FNDA:0,_RNCNvNtCs9svORWNbXMv_13weaveback_api8semantic24persist_embedding_configs1_0B5_
FNDA:0,_RNCNvNtCs9svORWNbXMv_13weaveback_api8semantic24persist_embedding_configs_0B5_
FNDA:1,_RNCNvNtCs9svORWNbXMv_13weaveback_api8semantic30build_gemini_embedding_request0B5_
FNDA:1,_RNCNvNtCs9svORWNbXMv_13weaveback_api8semantic31parse_gemini_embedding_response0B5_
FNDA:1,_RNCNvNtCs9svORWNbXMv_13weaveback_api8semantic31parse_gemini_embedding_responses_0B5_
FNDA:2,_RNCNvNtCs9svORWNbXMv_13weaveback_api8semantic31parse_openai_embedding_response0B5_
FNDA:2,_RNCNvNtCs9svORWNbXMv_13weaveback_api8semantic31parse_openai_embedding_responses_0B5_
FNDA:4,_RNvNtCs9svORWNbXMv_13weaveback_api8semantic11embed_texts
FNDA:3,_RNvNtCs9svORWNbXMv_13weaveback_api8semantic14run_auto_embed
FNDA:4,_RNvNtCs9svORWNbXMv_13weaveback_api8semantic18extract_block_text
FNDA:0,_RNvNtCs9svORWNbXMv_13weaveback_api8semantic22call_gemini_embeddings
FNDA:2,_RNvNtCs9svORWNbXMv_13weaveback_api8semantic22call_openai_embeddings
FNDA:1,_RNvNtCs9svORWNbXMv_13weaveback_api8semantic24default_embeddings_model
FNDA:4,_RNvNtCs9svORWNbXMv_13weaveback_api8semantic24persist_embedding_config
FNDA:1,_RNvNtCs9svORWNbXMv_13weaveback_api8semantic26default_embeddings_backend
FNDA:3,_RNvNtCs9svORWNbXMv_13weaveback_api8semantic29default_embeddings_batch_size
FNDA:1,_RNvNtCs9svORWNbXMv_13weaveback_api8semantic30build_gemini_embedding_request
FNDA:4,_RNvNtCs9svORWNbXMv_13weaveback_api8semantic30build_openai_embedding_request
FNDA:2,_RNvNtCs9svORWNbXMv_13weaveback_api8semantic31parse_gemini_embedding_response
FNDA:3,_RNvNtCs9svORWNbXMv_13weaveback_api8semantic31parse_openai_embedding_response
FNDA:1,_RNvNtNtCs9svORWNbXMv_13weaveback_api8semantic5testss_27test_run_auto_embed_success
FNDA:1,_RNvNtNtCs9svORWNbXMv_13weaveback_api8semantic5testss_30extract_block_text_single_line
FNDA:1,_RNvNtNtCs9svORWNbXMv_13weaveback_api8semantic5testss_36default_embeddings_model_is_nonempty
FNDA:1,_RNvNtNtCs9svORWNbXMv_13weaveback_api8semantic5testss_37embed_texts_rejects_anthropic_backend
FNDA:1,_RNvNtNtCs9svORWNbXMv_13weaveback_api8semantic5testss_38default_embeddings_backend_is_nonempty
FNDA:1,_RNvNtNtCs9svORWNbXMv_13weaveback_api8semantic5testss_40build_openai_embedding_request_forms_url
FNDA:1,_RNvNtNtCs9svORWNbXMv_13weaveback_api8semantic5testss_40test_run_auto_embed_skips_when_no_blocks
FNDA:1,_RNvNtNtCs9svORWNbXMv_13weaveback_api8semantic5testss_41default_embeddings_batch_size_is_positive
FNDA:1,_RNvNtNtCs9svORWNbXMv_13weaveback_api8semantic5testss_42extract_block_text_returns_requested_range
FNDA:1,_RNvNtNtCs9svORWNbXMv_13weaveback_api8semantic5testss_42persist_embedding_config_stores_all_fields
FNDA:1,_RNvNtNtCs9svORWNbXMv_13weaveback_api8semantic5testss_43test_embed_texts_dispatches_openai_with_key
FNDA:1,_RNvNtNtCs9svORWNbXMv_13weaveback_api8semantic5testss_45extract_block_text_out_of_range_returns_empty
FNDA:1,_RNvNtNtCs9svORWNbXMv_13weaveback_api8semantic5testss_45test_run_auto_embed_normalises_snapshot_paths
FNDA:1,_RNvNtNtCs9svORWNbXMv_13weaveback_api8semantic5testss_48build_gemini_embedding_request_embeds_key_in_url
FNDA:1,_RNvNtNtCs9svORWNbXMv_13weaveback_api8semantic5testss_48parse_gemini_embedding_response_extracts_vectors
FNDA:1,_RNvNtNtCs9svORWNbXMv_13weaveback_api8semantic5testss_48parse_openai_embedding_response_extracts_vectors
FNDA:1,_RNvNtNtCs9svORWNbXMv_13weaveback_api8semantic5testss_51build_openai_embedding_request_trims_trailing_slash
FNDA:1,_RNvNtNtCs9svORWNbXMv_13weaveback_api8semantic5testss_51parse_gemini_embedding_response_errors_on_bad_shape
FNDA:1,_RNvNtNtCs9svORWNbXMv_13weaveback_api8semantic5testss_51parse_openai_embedding_response_errors_on_bad_shape
FNDA:1,_RNvNtNtCs9svORWNbXMv_13weaveback_api8semantic5testss_58test_embed_texts_dispatches_gemini_errors_when_key_missing
FNF:56
FNH:46
DA:17,1
DA:18,1
DA:19,3
DA:21,4
DA:22,4
DA:23,4
DA:24,4
DA:25,4
DA:26,4
DA:27,4
DA:28,4
DA:29,4
DA:30,4
DA:31,4
DA:32,4
DA:33,4
DA:34,4
DA:35,4
DA:36,4
DA:40,4
DA:41,4
DA:42,4
DA:43,4
DA:44,4
DA:45,4
DA:46,4
DA:47,4
DA:48,4
DA:50,3
DA:51,3
DA:52,3
DA:53,3
DA:54,1
DA:56,2
DA:57,2
DA:58,2
DA:59,0
DA:61,2
DA:62,35
DA:63,35
DA:64,2
DA:65,2
DA:66,2
DA:67,3
DA:69,2
DA:70,2
DA:71,2
DA:72,2
DA:73,2
DA:74,2
DA:75,2
DA:76,2
DA:77,2
DA:78,2
DA:79,2
DA:80,2
DA:81,1
DA:82,1
DA:83,2
DA:84,1
DA:85,1
DA:86,2
DA:90,1
DA:91,1
DA:92,1
DA:93,1
DA:94,1
DA:95,1
DA:99,1
DA:100,1
DA:101,1
DA:102,1
DA:103,1
DA:105,1
DA:106,1
DA:107,1
DA:108,1
DA:110,2
DA:111,2
DA:112,2
DA:113,2
DA:114,1
DA:116,1
DA:117,1
DA:118,1
DA:119,0
DA:121,1
DA:122,2
DA:123,2
DA:124,1
DA:125,1
DA:126,1
DA:127,2
DA:129,0
DA:130,0
DA:131,0
DA:132,0
DA:133,0
DA:134,0
DA:135,0
DA:136,0
DA:137,0
DA:138,0
DA:139,0
DA:140,0
DA:141,0
DA:142,0
DA:143,0
DA:147,4
DA:148,4
DA:149,4
DA:150,1
DA:151,1
DA:152,0
DA:154,3
DA:155,1
DA:156,1
DA:158,2
DA:159,1
DA:160,1
DA:161,1
DA:163,1
DA:164,1
DA:165,1
DA:168,4
DA:171,4
DA:172,4
DA:173,4
DA:174,4
DA:175,4
DA:176,4
DA:177,4
DA:178,4
DA:179,4
DA:180,4
DA:181,3
DA:182,3
DA:183,3
DA:184,3
DA:185,3
DA:186,0
DA:187,3
DA:189,3
DA:190,3
DA:191,0
DA:192,0
DA:193,0
DA:196,3
DA:199,1
DA:200,1
DA:201,1
DA:202,1
DA:203,1
DA:205,1
DA:206,1
DA:208,1
DA:209,1
DA:210,1
DA:212,0
DA:213,0
DA:214,0
DA:215,0
DA:220,1
DA:221,1
DA:222,1
DA:223,1
DA:224,1
DA:226,1
DA:227,1
DA:228,0
DA:229,0
DA:230,0
DA:233,1
DA:234,1
DA:235,1
DA:236,1
DA:237,1
DA:238,1
DA:239,1
DA:240,1
DA:241,0
DA:242,1
DA:243,1
DA:244,1
DA:248,1
DA:249,1
DA:250,1
DA:251,3
DA:259,1
DA:260,1
DA:261,1
DA:262,1
DA:263,1
DA:264,1
DA:265,1
DA:266,1
DA:267,1
DA:270,1
DA:271,1
DA:272,1
DA:273,1
DA:274,1
DA:275,1
DA:276,1
DA:279,1
DA:280,1
DA:281,1
DA:283,1
DA:284,1
DA:285,1
DA:286,1
DA:289,1
DA:290,1
DA:291,1
DA:292,1
DA:295,1
DA:296,1
DA:297,1
DA:298,1
DA:299,1
DA:300,1
DA:301,1
DA:304,1
DA:305,1
DA:306,1
DA:308,1
DA:309,1
DA:310,1
DA:311,1
DA:314,1
DA:315,1
DA:316,1
DA:317,1
DA:322,1
DA:323,1
DA:325,1
DA:326,1
DA:329,1
DA:330,1
DA:331,1
DA:332,1
DA:335,1
DA:336,1
DA:337,1
DA:338,1
DA:343,1
DA:344,1
DA:345,1
DA:346,1
DA:347,1
DA:348,1
DA:349,1
DA:350,1
DA:351,1
DA:352,1
DA:357,1
DA:358,1
DA:359,1
DA:362,1
DA:363,1
DA:364,1
DA:367,1
DA:368,1
DA:369,1
DA:374,1
DA:376,1
DA:377,1
DA:378,1
DA:379,1
DA:380,1
DA:381,1
DA:382,1
DA:383,1
DA:384,1
DA:385,1
DA:386,1
DA:387,1
DA:388,1
DA:391,1
DA:392,1
DA:393,1
DA:394,1
DA:396,1
DA:397,1
DA:398,1
DA:399,1
DA:401,1
DA:402,1
DA:403,1
DA:404,1
DA:405,1
DA:406,1
DA:407,1
DA:408,1
DA:409,1
DA:410,1
DA:411,1
DA:412,1
DA:413,1
DA:414,1
DA:415,1
DA:416,1
DA:417,1
DA:418,1
DA:419,1
DA:422,1
DA:423,1
DA:424,1
DA:425,1
DA:428,1
DA:430,1
DA:431,1
DA:432,1
DA:433,1
DA:434,1
DA:435,1
DA:437,1
DA:439,1
DA:442,1
DA:443,1
DA:444,1
DA:447,1
DA:449,1
DA:450,1
DA:451,1
DA:454,1
DA:455,1
DA:456,1
DA:457,1
DA:458,1
DA:459,1
DA:460,1
DA:461,1
DA:463,1
DA:464,1
DA:465,1
DA:466,1
DA:467,1
DA:468,1
DA:471,1
DA:472,1
DA:475,1
DA:476,1
DA:477,1
DA:478,1
DA:479,1
DA:480,1
DA:481,1
DA:482,1
DA:483,1
DA:484,1
DA:485,1
DA:488,1
DA:489,1
DA:490,1
DA:491,1
DA:492,1
DA:493,1
DA:494,1
DA:495,1
DA:496,1
DA:497,1
DA:498,1
DA:499,1
DA:502,1
DA:503,1
DA:504,1
DA:505,1
DA:506,1
DA:507,1
DA:508,1
DA:509,1
DA:510,1
DA:512,1
BRF:0
BRH:0
LF:397
LH:358
end_of_record
SF:/home/g4/_prj/weaveback/crates/weaveback-api/src/tag.rs
FN:182,_RNCNCNCNvNtCsaY2CvWUtqiY_13weaveback_api3tag14parse_response0s_00B9_
FN:171,_RNCNCNvNtCsaY2CvWUtqiY_13weaveback_api3tag14parse_response00B7_
FN:185,_RNCNCNvNtCsaY2CvWUtqiY_13weaveback_api3tag14parse_response0s0_0B7_
FN:179,_RNCNCNvNtCsaY2CvWUtqiY_13weaveback_api3tag14parse_response0s_0B7_
FN:80,_RNCNvNtCsaY2CvWUtqiY_13weaveback_api3tag11call_gemini0B5_
FN:81,_RNCNvNtCsaY2CvWUtqiY_13weaveback_api3tag11call_geminis_0B5_
FN:247,_RNCNvNtCsaY2CvWUtqiY_13weaveback_api3tag12run_auto_tag0B5_
FN:255,_RNCNvNtCsaY2CvWUtqiY_13weaveback_api3tag12run_auto_tags_0B5_
FN:47,_RNCNvNtCsaY2CvWUtqiY_13weaveback_api3tag14call_anthropic0B5_
FN:48,_RNCNvNtCsaY2CvWUtqiY_13weaveback_api3tag14call_anthropics_0B5_
FN:165,_RNCNvNtCsaY2CvWUtqiY_13weaveback_api3tag14parse_response0B5_
FN:118,_RNCNvNtCsaY2CvWUtqiY_13weaveback_api3tag18call_openai_compat0B5_
FN:119,_RNCNvNtCsaY2CvWUtqiY_13weaveback_api3tag18call_openai_compats_0B5_
FN:70,_RNCNvNtCsaY2CvWUtqiY_13weaveback_api3tag21parse_gemini_response0B5_
FN:101,_RNCNvNtCsaY2CvWUtqiY_13weaveback_api3tag21parse_openai_response0B5_
FN:35,_RNCNvNtCsaY2CvWUtqiY_13weaveback_api3tag24parse_anthropic_response0B5_
FN:127,_RNCNvNtCsaY2CvWUtqiY_13weaveback_api3tag8call_llm0B5_
FN:132,_RNCNvNtCsaY2CvWUtqiY_13weaveback_api3tag8call_llms_0B5_
FN:73,_RNvNtCsaY2CvWUtqiY_13weaveback_api3tag11call_gemini
FN:147,_RNvNtCsaY2CvWUtqiY_13weaveback_api3tag12build_prompt
FN:208,_RNvNtCsaY2CvWUtqiY_13weaveback_api3tag12run_auto_tag
FN:38,_RNvNtCsaY2CvWUtqiY_13weaveback_api3tag14call_anthropic
FN:162,_RNvNtCsaY2CvWUtqiY_13weaveback_api3tag14parse_response
FN:195,_RNvNtCsaY2CvWUtqiY_13weaveback_api3tag16block_first_line
FN:104,_RNvNtCsaY2CvWUtqiY_13weaveback_api3tag18call_openai_compat
FN:23,_RNvNtCsaY2CvWUtqiY_13weaveback_api3tag20build_anthropic_body
FN:54,_RNvNtCsaY2CvWUtqiY_13weaveback_api3tag20build_gemini_request
FN:87,_RNvNtCsaY2CvWUtqiY_13weaveback_api3tag20build_openai_request
FN:66,_RNvNtCsaY2CvWUtqiY_13weaveback_api3tag21parse_gemini_response
FN:97,_RNvNtCsaY2CvWUtqiY_13weaveback_api3tag21parse_openai_response
FN:31,_RNvNtCsaY2CvWUtqiY_13weaveback_api3tag24parse_anthropic_response
FN:123,_RNvNtCsaY2CvWUtqiY_13weaveback_api3tag8call_llm
FN:73,_RNvNtCs9svORWNbXMv_13weaveback_api3tag11call_gemini
FN:147,_RNvNtCs9svORWNbXMv_13weaveback_api3tag12build_prompt
FN:208,_RNvNtCs9svORWNbXMv_13weaveback_api3tag12run_auto_tag
FN:38,_RNvNtCs9svORWNbXMv_13weaveback_api3tag14call_anthropic
FN:162,_RNvNtCs9svORWNbXMv_13weaveback_api3tag14parse_response
FN:195,_RNvNtCs9svORWNbXMv_13weaveback_api3tag16block_first_line
FN:104,_RNvNtCs9svORWNbXMv_13weaveback_api3tag18call_openai_compat
FN:23,_RNvNtCs9svORWNbXMv_13weaveback_api3tag20build_anthropic_body
FN:54,_RNvNtCs9svORWNbXMv_13weaveback_api3tag20build_gemini_request
FN:87,_RNvNtCs9svORWNbXMv_13weaveback_api3tag20build_openai_request
FN:66,_RNvNtCs9svORWNbXMv_13weaveback_api3tag21parse_gemini_response
FN:97,_RNvNtCs9svORWNbXMv_13weaveback_api3tag21parse_openai_response
FN:31,_RNvNtCs9svORWNbXMv_13weaveback_api3tag24parse_anthropic_response
FN:123,_RNvNtCs9svORWNbXMv_13weaveback_api3tag8call_llm
FN:182,_RNCNCNCNvNtCs9svORWNbXMv_13weaveback_api3tag14parse_response0s_00B9_
FN:171,_RNCNCNvNtCs9svORWNbXMv_13weaveback_api3tag14parse_response00B7_
FN:185,_RNCNCNvNtCs9svORWNbXMv_13weaveback_api3tag14parse_response0s0_0B7_
FN:179,_RNCNCNvNtCs9svORWNbXMv_13weaveback_api3tag14parse_response0s_0B7_
FN:80,_RNCNvNtCs9svORWNbXMv_13weaveback_api3tag11call_gemini0B5_
FN:81,_RNCNvNtCs9svORWNbXMv_13weaveback_api3tag11call_geminis_0B5_
FN:247,_RNCNvNtCs9svORWNbXMv_13weaveback_api3tag12run_auto_tag0B5_
FN:255,_RNCNvNtCs9svORWNbXMv_13weaveback_api3tag12run_auto_tags_0B5_
FN:47,_RNCNvNtCs9svORWNbXMv_13weaveback_api3tag14call_anthropic0B5_
FN:48,_RNCNvNtCs9svORWNbXMv_13weaveback_api3tag14call_anthropics_0B5_
FN:165,_RNCNvNtCs9svORWNbXMv_13weaveback_api3tag14parse_response0B5_
FN:118,_RNCNvNtCs9svORWNbXMv_13weaveback_api3tag18call_openai_compat0B5_
FN:119,_RNCNvNtCs9svORWNbXMv_13weaveback_api3tag18call_openai_compats_0B5_
FN:70,_RNCNvNtCs9svORWNbXMv_13weaveback_api3tag21parse_gemini_response0B5_
FN:101,_RNCNvNtCs9svORWNbXMv_13weaveback_api3tag21parse_openai_response0B5_
FN:35,_RNCNvNtCs9svORWNbXMv_13weaveback_api3tag24parse_anthropic_response0B5_
FN:127,_RNCNvNtCs9svORWNbXMv_13weaveback_api3tag8call_llm0B5_
FN:132,_RNCNvNtCs9svORWNbXMv_13weaveback_api3tag8call_llms_0B5_
FN:295,_RNvNtNtCs9svORWNbXMv_13weaveback_api3tag5tests7make_db
FN:368,_RNvNtNtCs9svORWNbXMv_13weaveback_api3tag5testss_25test_parse_response_basic
FN:399,_RNvNtNtCs9svORWNbXMv_13weaveback_api3tag5testss_34test_block_first_line_out_of_range
FN:335,_RNvNtNtCs9svORWNbXMv_13weaveback_api3tag5testss_35parse_gemini_response_extracts_text
FN:343,_RNvNtNtCs9svORWNbXMv_13weaveback_api3tag5testss_38build_openai_request_forms_correct_url
FN:313,_RNvNtNtCs9svORWNbXMv_13weaveback_api3tag5testss_38parse_anthropic_response_extracts_text
FN:350,_RNvNtNtCs9svORWNbXMv_13weaveback_api3tag5testss_38parse_openai_response_extracts_content
FN:407,_RNvNtNtCs9svORWNbXMv_13weaveback_api3tag5testss_38test_run_auto_tag_skips_when_no_blocks
FN:434,_RNvNtNtCs9svORWNbXMv_13weaveback_api3tag5testss_39test_parse_response_empty_colon_skipped
FN:385,_RNvNtNtCs9svORWNbXMv_13weaveback_api3tag5testss_39test_parse_response_skips_invalid_lines
FN:393,_RNvNtNtCs9svORWNbXMv_13weaveback_api3tag5testss_40test_block_first_line_returns_first_line
FN:377,_RNvNtNtCs9svORWNbXMv_13weaveback_api3tag5testss_41test_parse_response_sanitises_punctuation
FN:327,_RNvNtNtCs9svORWNbXMv_13weaveback_api3tag5testss_42build_gemini_request_embeds_api_key_in_url
FN:471,_RNvNtNtCs9svORWNbXMv_13weaveback_api3tag5testss_43test_run_auto_tag_normalises_snapshot_paths
FN:321,_RNvNtNtCs9svORWNbXMv_13weaveback_api3tag5testss_44parse_anthropic_response_errors_on_bad_shape
FN:360,_RNvNtNtCs9svORWNbXMv_13weaveback_api3tag5testss_44test_build_prompt_contains_index_and_content
FN:525,_RNvNtNtCs9svORWNbXMv_13weaveback_api3tag5testss_44test_call_llm_dispatches_gemini_with_env_key
FN:511,_RNvNtNtCs9svORWNbXMv_13weaveback_api3tag5testss_44test_call_llm_dispatches_openai_with_env_key
FN:421,_RNvNtNtCs9svORWNbXMv_13weaveback_api3tag5testss_44test_run_auto_tag_skips_unreachable_endpoint
FN:552,_RNvNtNtCs9svORWNbXMv_13weaveback_api3tag5testss_45test_run_auto_tag_skips_file_without_snapshot
FN:305,_RNvNtNtCs9svORWNbXMv_13weaveback_api3tag5testss_47build_anthropic_body_contains_model_and_message
FN:539,_RNvNtNtCs9svORWNbXMv_13weaveback_api3tag5testss_47test_call_llm_errors_when_anthropic_key_missing
FN:498,_RNvNtNtCs9svORWNbXMv_13weaveback_api3tag5testss_48test_call_llm_dispatches_ollama_to_openai_compat
FN:570,_RNvNtNtCs9svORWNbXMv_13weaveback_api3tag5testss_48test_call_llm_unknown_backend_defaults_to_openai
FN:442,_RNvNtNtCs9svORWNbXMv_13weaveback_api3tag5testss_48test_parse_response_all_punctuation_tags_skipped
FN:450,_RNvNtNtCs9svORWNbXMv_13weaveback_api3tag5testss_48test_run_auto_tag_processes_blocks_with_snapshot
FN:589,_RNvNtNtCs9svORWNbXMv_13weaveback_api3tag5testss_50test_parse_openai_response_errors_on_empty_choices
FN:583,_RNvNtNtCs9svORWNbXMv_13weaveback_api3tag5testss_53test_parse_gemini_response_errors_on_empty_candidates
FNDA:0,_RNCNCNCNvNtCsaY2CvWUtqiY_13weaveback_api3tag14parse_response0s_00B9_
FNDA:0,_RNCNCNvNtCsaY2CvWUtqiY_13weaveback_api3tag14parse_response00B7_
FNDA:0,_RNCNCNvNtCsaY2CvWUtqiY_13weaveback_api3tag14parse_response0s0_0B7_
FNDA:0,_RNCNCNvNtCsaY2CvWUtqiY_13weaveback_api3tag14parse_response0s_0B7_
FNDA:0,_RNCNvNtCsaY2CvWUtqiY_13weaveback_api3tag11call_gemini0B5_
FNDA:0,_RNCNvNtCsaY2CvWUtqiY_13weaveback_api3tag11call_geminis_0B5_
FNDA:0,_RNCNvNtCsaY2CvWUtqiY_13weaveback_api3tag12run_auto_tag0B5_
FNDA:0,_RNCNvNtCsaY2CvWUtqiY_13weaveback_api3tag12run_auto_tags_0B5_
FNDA:0,_RNCNvNtCsaY2CvWUtqiY_13weaveback_api3tag14call_anthropic0B5_
FNDA:0,_RNCNvNtCsaY2CvWUtqiY_13weaveback_api3tag14call_anthropics_0B5_
FNDA:0,_RNCNvNtCsaY2CvWUtqiY_13weaveback_api3tag14parse_response0B5_
FNDA:0,_RNCNvNtCsaY2CvWUtqiY_13weaveback_api3tag18call_openai_compat0B5_
FNDA:0,_RNCNvNtCsaY2CvWUtqiY_13weaveback_api3tag18call_openai_compats_0B5_
FNDA:0,_RNCNvNtCsaY2CvWUtqiY_13weaveback_api3tag21parse_gemini_response0B5_
FNDA:0,_RNCNvNtCsaY2CvWUtqiY_13weaveback_api3tag21parse_openai_response0B5_
FNDA:0,_RNCNvNtCsaY2CvWUtqiY_13weaveback_api3tag24parse_anthropic_response0B5_
FNDA:0,_RNCNvNtCsaY2CvWUtqiY_13weaveback_api3tag8call_llm0B5_
FNDA:0,_RNCNvNtCsaY2CvWUtqiY_13weaveback_api3tag8call_llms_0B5_
FNDA:0,_RNvNtCsaY2CvWUtqiY_13weaveback_api3tag11call_gemini
FNDA:0,_RNvNtCsaY2CvWUtqiY_13weaveback_api3tag12build_prompt
FNDA:0,_RNvNtCsaY2CvWUtqiY_13weaveback_api3tag12run_auto_tag
FNDA:0,_RNvNtCsaY2CvWUtqiY_13weaveback_api3tag14call_anthropic
FNDA:0,_RNvNtCsaY2CvWUtqiY_13weaveback_api3tag14parse_response
FNDA:0,_RNvNtCsaY2CvWUtqiY_13weaveback_api3tag16block_first_line
FNDA:0,_RNvNtCsaY2CvWUtqiY_13weaveback_api3tag18call_openai_compat
FNDA:0,_RNvNtCsaY2CvWUtqiY_13weaveback_api3tag20build_anthropic_body
FNDA:0,_RNvNtCsaY2CvWUtqiY_13weaveback_api3tag20build_gemini_request
FNDA:0,_RNvNtCsaY2CvWUtqiY_13weaveback_api3tag20build_openai_request
FNDA:0,_RNvNtCsaY2CvWUtqiY_13weaveback_api3tag21parse_gemini_response
FNDA:0,_RNvNtCsaY2CvWUtqiY_13weaveback_api3tag21parse_openai_response
FNDA:0,_RNvNtCsaY2CvWUtqiY_13weaveback_api3tag24parse_anthropic_response
FNDA:0,_RNvNtCsaY2CvWUtqiY_13weaveback_api3tag8call_llm
FNDA:1,_RNvNtCs9svORWNbXMv_13weaveback_api3tag11call_gemini
FNDA:2,_RNvNtCs9svORWNbXMv_13weaveback_api3tag12build_prompt
FNDA:5,_RNvNtCs9svORWNbXMv_13weaveback_api3tag12run_auto_tag
FNDA:0,_RNvNtCs9svORWNbXMv_13weaveback_api3tag14call_anthropic
FNDA:5,_RNvNtCs9svORWNbXMv_13weaveback_api3tag14parse_response
FNDA:3,_RNvNtCs9svORWNbXMv_13weaveback_api3tag16block_first_line
FNDA:4,_RNvNtCs9svORWNbXMv_13weaveback_api3tag18call_openai_compat
FNDA:1,_RNvNtCs9svORWNbXMv_13weaveback_api3tag20build_anthropic_body
FNDA:2,_RNvNtCs9svORWNbXMv_13weaveback_api3tag20build_gemini_request
FNDA:5,_RNvNtCs9svORWNbXMv_13weaveback_api3tag20build_openai_request
FNDA:2,_RNvNtCs9svORWNbXMv_13weaveback_api3tag21parse_gemini_response
FNDA:2,_RNvNtCs9svORWNbXMv_13weaveback_api3tag21parse_openai_response
FNDA:2,_RNvNtCs9svORWNbXMv_13weaveback_api3tag24parse_anthropic_response
FNDA:6,_RNvNtCs9svORWNbXMv_13weaveback_api3tag8call_llm
FNDA:67,_RNCNCNCNvNtCs9svORWNbXMv_13weaveback_api3tag14parse_response0s_00B9_
FNDA:11,_RNCNCNvNtCs9svORWNbXMv_13weaveback_api3tag14parse_response00B7_
FNDA:10,_RNCNCNvNtCs9svORWNbXMv_13weaveback_api3tag14parse_response0s0_0B7_
FNDA:10,_RNCNCNvNtCs9svORWNbXMv_13weaveback_api3tag14parse_response0s_0B7_
FNDA:1,_RNCNvNtCs9svORWNbXMv_13weaveback_api3tag11call_gemini0B5_
FNDA:0,_RNCNvNtCs9svORWNbXMv_13weaveback_api3tag11call_geminis_0B5_
FNDA:1,_RNCNvNtCs9svORWNbXMv_13weaveback_api3tag12run_auto_tag0B5_
FNDA:1,_RNCNvNtCs9svORWNbXMv_13weaveback_api3tag12run_auto_tags_0B5_
FNDA:0,_RNCNvNtCs9svORWNbXMv_13weaveback_api3tag14call_anthropic0B5_
FNDA:0,_RNCNvNtCs9svORWNbXMv_13weaveback_api3tag14call_anthropics_0B5_
FNDA:9,_RNCNvNtCs9svORWNbXMv_13weaveback_api3tag14parse_response0B5_
FNDA:4,_RNCNvNtCs9svORWNbXMv_13weaveback_api3tag18call_openai_compat0B5_
FNDA:0,_RNCNvNtCs9svORWNbXMv_13weaveback_api3tag18call_openai_compats_0B5_
FNDA:1,_RNCNvNtCs9svORWNbXMv_13weaveback_api3tag21parse_gemini_response0B5_
FNDA:1,_RNCNvNtCs9svORWNbXMv_13weaveback_api3tag21parse_openai_response0B5_
FNDA:1,_RNCNvNtCs9svORWNbXMv_13weaveback_api3tag24parse_anthropic_response0B5_
FNDA:1,_RNCNvNtCs9svORWNbXMv_13weaveback_api3tag8call_llm0B5_
FNDA:0,_RNCNvNtCs9svORWNbXMv_13weaveback_api3tag8call_llms_0B5_
FNDA:5,_RNvNtNtCs9svORWNbXMv_13weaveback_api3tag5tests7make_db
FNDA:1,_RNvNtNtCs9svORWNbXMv_13weaveback_api3tag5testss_25test_parse_response_basic
FNDA:1,_RNvNtNtCs9svORWNbXMv_13weaveback_api3tag5testss_34test_block_first_line_out_of_range
FNDA:1,_RNvNtNtCs9svORWNbXMv_13weaveback_api3tag5testss_35parse_gemini_response_extracts_text
FNDA:1,_RNvNtNtCs9svORWNbXMv_13weaveback_api3tag5testss_38build_openai_request_forms_correct_url
FNDA:1,_RNvNtNtCs9svORWNbXMv_13weaveback_api3tag5testss_38parse_anthropic_response_extracts_text
FNDA:1,_RNvNtNtCs9svORWNbXMv_13weaveback_api3tag5testss_38parse_openai_response_extracts_content
FNDA:1,_RNvNtNtCs9svORWNbXMv_13weaveback_api3tag5testss_38test_run_auto_tag_skips_when_no_blocks
FNDA:1,_RNvNtNtCs9svORWNbXMv_13weaveback_api3tag5testss_39test_parse_response_empty_colon_skipped
FNDA:1,_RNvNtNtCs9svORWNbXMv_13weaveback_api3tag5testss_39test_parse_response_skips_invalid_lines
FNDA:1,_RNvNtNtCs9svORWNbXMv_13weaveback_api3tag5testss_40test_block_first_line_returns_first_line
FNDA:1,_RNvNtNtCs9svORWNbXMv_13weaveback_api3tag5testss_41test_parse_response_sanitises_punctuation
FNDA:1,_RNvNtNtCs9svORWNbXMv_13weaveback_api3tag5testss_42build_gemini_request_embeds_api_key_in_url
FNDA:1,_RNvNtNtCs9svORWNbXMv_13weaveback_api3tag5testss_43test_run_auto_tag_normalises_snapshot_paths
FNDA:1,_RNvNtNtCs9svORWNbXMv_13weaveback_api3tag5testss_44parse_anthropic_response_errors_on_bad_shape
FNDA:1,_RNvNtNtCs9svORWNbXMv_13weaveback_api3tag5testss_44test_build_prompt_contains_index_and_content
FNDA:1,_RNvNtNtCs9svORWNbXMv_13weaveback_api3tag5testss_44test_call_llm_dispatches_gemini_with_env_key
FNDA:1,_RNvNtNtCs9svORWNbXMv_13weaveback_api3tag5testss_44test_call_llm_dispatches_openai_with_env_key
FNDA:1,_RNvNtNtCs9svORWNbXMv_13weaveback_api3tag5testss_44test_run_auto_tag_skips_unreachable_endpoint
FNDA:1,_RNvNtNtCs9svORWNbXMv_13weaveback_api3tag5testss_45test_run_auto_tag_skips_file_without_snapshot
FNDA:1,_RNvNtNtCs9svORWNbXMv_13weaveback_api3tag5testss_47build_anthropic_body_contains_model_and_message
FNDA:1,_RNvNtNtCs9svORWNbXMv_13weaveback_api3tag5testss_47test_call_llm_errors_when_anthropic_key_missing
FNDA:1,_RNvNtNtCs9svORWNbXMv_13weaveback_api3tag5testss_48test_call_llm_dispatches_ollama_to_openai_compat
FNDA:1,_RNvNtNtCs9svORWNbXMv_13weaveback_api3tag5testss_48test_call_llm_unknown_backend_defaults_to_openai
FNDA:1,_RNvNtNtCs9svORWNbXMv_13weaveback_api3tag5testss_48test_parse_response_all_punctuation_tags_skipped
FNDA:1,_RNvNtNtCs9svORWNbXMv_13weaveback_api3tag5testss_48test_run_auto_tag_processes_blocks_with_snapshot
FNDA:1,_RNvNtNtCs9svORWNbXMv_13weaveback_api3tag5testss_50test_parse_openai_response_errors_on_empty_choices
FNDA:1,_RNvNtNtCs9svORWNbXMv_13weaveback_api3tag5testss_53test_parse_gemini_response_errors_on_empty_candidates
FNF:60
FNH:54
DA:23,1
DA:24,1
DA:25,1
DA:26,1
DA:27,1
DA:29,1
DA:31,2
DA:32,2
DA:33,2
DA:34,2
DA:35,2
DA:36,2
DA:38,0
DA:39,0
DA:40,0
DA:41,0
DA:42,0
DA:43,0
DA:44,0
DA:45,0
DA:46,0
DA:47,0
DA:48,0
DA:49,0
DA:50,0
DA:54,2
DA:55,2
DA:59,2
DA:60,2
DA:61,2
DA:63,2
DA:64,2
DA:66,2
DA:67,2
DA:68,2
DA:69,2
DA:70,2
DA:71,2
DA:73,1
DA:74,1
DA:75,1
DA:76,1
DA:77,1
DA:78,1
DA:79,1
DA:80,1
DA:81,0
DA:82,0
DA:83,1
DA:87,5
DA:88,5
DA:89,5
DA:90,5
DA:91,5
DA:92,5
DA:94,5
DA:95,5
DA:97,2
DA:98,2
DA:99,2
DA:100,2
DA:101,2
DA:102,2
DA:104,4
DA:105,4
DA:106,4
DA:107,4
DA:108,4
DA:109,4
DA:110,4
DA:111,4
DA:112,4
DA:113,4
DA:114,4
DA:115,4
DA:116,2
DA:117,2
DA:118,4
DA:119,0
DA:120,0
DA:121,4
DA:123,6
DA:124,6
DA:125,6
DA:126,1
DA:127,1
DA:128,0
DA:130,5
DA:131,1
DA:132,1
DA:133,1
DA:135,4
DA:136,2
DA:137,2
DA:141,2
DA:142,2
DA:143,2
DA:146,6
DA:147,2
DA:149,2
DA:155,2
DA:156,2
DA:157,2
DA:158,2
DA:159,2
DA:160,2
DA:162,5
DA:163,5
DA:164,5
DA:165,9
DA:166,9
DA:167,9
DA:168,8
DA:169,8
DA:170,8
DA:171,11
DA:172,8
DA:173,8
DA:174,1
DA:175,7
DA:177,7
DA:178,7
DA:179,10
DA:180,10
DA:181,10
DA:182,67
DA:183,10
DA:184,10
DA:185,10
DA:186,7
DA:187,7
DA:188,7
DA:189,9
DA:190,5
DA:191,5
DA:195,3
DA:196,3
DA:197,3
DA:198,3
DA:199,3
DA:200,3
DA:201,3
DA:202,3
DA:203,3
DA:204,3
DA:205,3
DA:208,5
DA:209,5
DA:210,5
DA:211,0
DA:213,5
DA:216,2
DA:217,2
DA:218,2
DA:219,2
DA:220,2
DA:222,2
DA:223,2
DA:225,2
DA:227,2
DA:228,1
DA:229,1
DA:230,0
DA:234,1
DA:235,1
DA:236,0
DA:237,1
DA:242,1
DA:244,1
DA:245,1
DA:246,1
DA:247,1
DA:248,1
DA:249,1
DA:250,1
DA:251,1
DA:253,1
DA:254,1
DA:255,1
DA:256,1
DA:258,1
DA:259,0
DA:260,1
DA:261,1
DA:262,1
DA:267,0
DA:268,0
DA:269,0
DA:270,0
DA:271,0
DA:272,0
DA:273,0
DA:274,0
DA:275,0
DA:276,0
DA:277,0
DA:278,0
DA:279,0
DA:280,0
DA:285,2
DA:286,0
DA:287,2
DA:288,5
DA:295,5
DA:296,5
DA:297,5
DA:298,5
DA:299,5
DA:300,5
DA:305,1
DA:306,1
DA:307,1
DA:308,1
DA:309,1
DA:310,1
DA:313,1
DA:314,1
DA:315,1
DA:317,1
DA:318,1
DA:321,1
DA:322,1
DA:323,1
DA:324,1
DA:327,1
DA:328,1
DA:329,1
DA:330,1
DA:331,1
DA:332,1
DA:335,1
DA:336,1
DA:337,1
DA:339,1
DA:340,1
DA:343,1
DA:344,1
DA:345,1
DA:346,1
DA:347,1
DA:350,1
DA:351,1
DA:352,1
DA:354,1
DA:355,1
DA:360,1
DA:361,1
DA:362,1
DA:363,1
DA:364,1
DA:365,1
DA:368,1
DA:369,1
DA:370,1
DA:371,1
DA:372,1
DA:373,1
DA:374,1
DA:377,1
DA:378,1
DA:379,1
DA:381,1
DA:382,1
DA:385,1
DA:386,1
DA:387,1
DA:388,1
DA:389,1
DA:390,1
DA:393,1
DA:394,1
DA:395,1
DA:396,1
DA:399,1
DA:400,1
DA:401,1
DA:402,1
DA:407,1
DA:408,1
DA:409,1
DA:410,1
DA:411,1
DA:412,1
DA:413,1
DA:414,1
DA:416,1
DA:417,1
DA:418,1
DA:421,1
DA:422,1
DA:423,1
DA:424,1
DA:425,1
DA:426,1
DA:427,1
DA:428,1
DA:429,1
DA:430,1
DA:431,1
DA:434,1
DA:436,1
DA:437,1
DA:438,1
DA:439,1
DA:442,1
DA:444,1
DA:445,1
DA:446,1
DA:447,1
DA:450,1
DA:454,1
DA:455,1
DA:456,1
DA:457,1
DA:458,1
DA:459,1
DA:460,1
DA:461,1
DA:462,1
DA:463,1
DA:464,1
DA:466,1
DA:467,1
DA:468,1
DA:471,1
DA:472,1
DA:473,1
DA:475,1
DA:477,1
DA:478,1
DA:479,1
DA:480,1
DA:481,1
DA:482,1
DA:483,1
DA:484,1
DA:486,1
DA:487,1
DA:488,1
DA:489,1
DA:490,1
DA:491,1
DA:494,1
DA:495,1
DA:498,1
DA:499,1
DA:500,1
DA:501,1
DA:502,1
DA:503,1
DA:504,1
DA:506,1
DA:507,1
DA:508,1
DA:511,1
DA:512,1
DA:513,1
DA:514,1
DA:515,1
DA:516,1
DA:517,1
DA:518,1
DA:519,1
DA:520,1
DA:521,1
DA:522,1
DA:525,1
DA:526,1
DA:527,1
DA:528,1
DA:529,1
DA:530,1
DA:531,1
DA:532,1
DA:533,1
DA:534,1
DA:535,1
DA:536,1
DA:539,1
DA:540,1
DA:541,1
DA:542,1
DA:543,1
DA:544,1
DA:545,1
DA:546,1
DA:547,1
DA:548,1
DA:549,1
DA:552,1
DA:555,1
DA:556,1
DA:557,1
DA:558,1
DA:559,1
DA:560,1
DA:561,1
DA:562,1
DA:563,1
DA:564,1
DA:565,1
DA:566,1
DA:567,1
DA:570,1
DA:571,1
DA:572,1
DA:573,1
DA:574,1
DA:575,1
DA:576,1
DA:578,1
DA:579,1
DA:580,1
DA:583,1
DA:584,1
DA:585,1
DA:586,1
DA:589,1
DA:590,1
DA:591,1
DA:592,1
BRF:0
BRH:0
LF:439
LH:397
end_of_record
SF:/home/g4/_prj/weaveback/crates/weaveback-api/src/tangle.rs
FN:63,_RNvNtCsaY2CvWUtqiY_13weaveback_api6tangle14build_pass_cmd
FN:103,_RNvNtCsaY2CvWUtqiY_13weaveback_api6tangle14run_tangle_all
FN:35,_RNvNtCsaY2CvWUtqiY_13weaveback_api6tangle18default_tags_model
FN:34,_RNvNtCsaY2CvWUtqiY_13weaveback_api6tangle20default_tags_backend
FN:36,_RNvNtCsaY2CvWUtqiY_13weaveback_api6tangle23default_tags_batch_size
FN:108,_RNCNvNtCsaY2CvWUtqiY_13weaveback_api6tangle14run_tangle_all0B5_
FN:111,_RNCNvNtCsaY2CvWUtqiY_13weaveback_api6tangle14run_tangle_alls_0B5_
FN:188,_RNCNvNtNtCs9svORWNbXMv_13weaveback_api6tangle5testss_31build_pass_cmd_sets_dir_and_gen0B7_
FN:292,_RNCNvNtNtCs9svORWNbXMv_13weaveback_api6tangle5testss_33build_pass_cmd_includes_chunk_end0B7_
FN:293,_RNCNvNtNtCs9svORWNbXMv_13weaveback_api6tangle5testss_33build_pass_cmd_includes_chunk_ends_0B7_
FN:274,_RNCNvNtNtCs9svORWNbXMv_13weaveback_api6tangle5testss_39build_pass_cmd_includes_comment_markers0B7_
FN:275,_RNCNvNtNtCs9svORWNbXMv_13weaveback_api6tangle5testss_39build_pass_cmd_includes_comment_markerss_0B7_
FN:310,_RNCNvNtNtCs9svORWNbXMv_13weaveback_api6tangle5testss_39build_pass_cmd_includes_multiple_sigils0B7_
FN:313,_RNCNvNtNtCs9svORWNbXMv_13weaveback_api6tangle5testss_39build_pass_cmd_includes_multiple_sigilss0_0B7_
FN:312,_RNCNvNtNtCs9svORWNbXMv_13weaveback_api6tangle5testss_39build_pass_cmd_includes_multiple_sigilss_0B7_
FN:333,_RNCNvNtNtCs9svORWNbXMv_13weaveback_api6tangle5testss_39build_pass_cmd_uses_output_dir_when_set0B7_
FN:336,_RNCNvNtNtCs9svORWNbXMv_13weaveback_api6tangle5testss_39build_pass_cmd_uses_output_dir_when_sets0_0B7_
FN:335,_RNCNvNtNtCs9svORWNbXMv_13weaveback_api6tangle5testss_39build_pass_cmd_uses_output_dir_when_sets_0B7_
FN:216,_RNCNvNtNtCs9svORWNbXMv_13weaveback_api6tangle5testss_40build_pass_cmd_adds_force_generated_flag0B7_
FN:347,_RNvNtNtCs9svORWNbXMv_13weaveback_api6tangle5testss_30tangle_cfg_parses_tags_section
FN:168,_RNvNtNtCs9svORWNbXMv_13weaveback_api6tangle5testss_31build_pass_cmd_sets_dir_and_gen
FN:224,_RNvNtNtCs9svORWNbXMv_13weaveback_api6tangle5testss_31tangle_cfg_roundtrips_from_toml
FN:340,_RNvNtNtCs9svORWNbXMv_13weaveback_api6tangle5testss_32default_tags_values_are_sensible
FN:279,_RNvNtNtCs9svORWNbXMv_13weaveback_api6tangle5testss_33build_pass_cmd_includes_chunk_end
FN:252,_RNvNtNtCs9svORWNbXMv_13weaveback_api6tangle5testss_33run_tangle_all_errors_on_bad_toml
FN:445,_RNvNtNtCs9svORWNbXMv_13weaveback_api6tangle5testss_33test_tangle_cfg_parses_embeddings
FN:423,_RNvNtNtCs9svORWNbXMv_13weaveback_api6tangle5testss_38test_run_tangle_all_db_open_error_path
FN:261,_RNvNtNtCs9svORWNbXMv_13weaveback_api6tangle5testss_39build_pass_cmd_includes_comment_markers
FN:297,_RNvNtNtCs9svORWNbXMv_13weaveback_api6tangle5testss_39build_pass_cmd_includes_multiple_sigils
FN:320,_RNvNtNtCs9svORWNbXMv_13weaveback_api6tangle5testss_39build_pass_cmd_uses_output_dir_when_set
FN:244,_RNvNtNtCs9svORWNbXMv_13weaveback_api6tangle5testss_39run_tangle_all_errors_on_missing_config
FN:461,_RNvNtNtCs9svORWNbXMv_13weaveback_api6tangle5testss_39test_run_tangle_all_fails_if_pass_fails
FN:197,_RNvNtNtCs9svORWNbXMv_13weaveback_api6tangle5testss_40build_pass_cmd_adds_force_generated_flag
FN:365,_RNvNtNtCs9svORWNbXMv_13weaveback_api6tangle5testss_41tangle_cfg_tags_uses_defaults_when_absent
FN:375,_RNvNtNtCs9svORWNbXMv_13weaveback_api6tangle5testss_43test_run_tangle_all_with_db_post_processing
FN:63,_RNvNtCs9svORWNbXMv_13weaveback_api6tangle14build_pass_cmd
FN:103,_RNvNtCs9svORWNbXMv_13weaveback_api6tangle14run_tangle_all
FN:35,_RNvNtCs9svORWNbXMv_13weaveback_api6tangle18default_tags_model
FN:34,_RNvNtCs9svORWNbXMv_13weaveback_api6tangle20default_tags_backend
FN:36,_RNvNtCs9svORWNbXMv_13weaveback_api6tangle23default_tags_batch_size
FN:108,_RNCNvNtCs9svORWNbXMv_13weaveback_api6tangle14run_tangle_all0B5_
FN:111,_RNCNvNtCs9svORWNbXMv_13weaveback_api6tangle14run_tangle_alls_0B5_
FNDA:0,_RNvNtCsaY2CvWUtqiY_13weaveback_api6tangle14build_pass_cmd
FNDA:0,_RNvNtCsaY2CvWUtqiY_13weaveback_api6tangle14run_tangle_all
FNDA:0,_RNvNtCsaY2CvWUtqiY_13weaveback_api6tangle18default_tags_model
FNDA:0,_RNvNtCsaY2CvWUtqiY_13weaveback_api6tangle20default_tags_backend
FNDA:0,_RNvNtCsaY2CvWUtqiY_13weaveback_api6tangle23default_tags_batch_size
FNDA:0,_RNCNvNtCsaY2CvWUtqiY_13weaveback_api6tangle14run_tangle_all0B5_
FNDA:0,_RNCNvNtCsaY2CvWUtqiY_13weaveback_api6tangle14run_tangle_alls_0B5_
FNDA:7,_RNCNvNtNtCs9svORWNbXMv_13weaveback_api6tangle5testss_31build_pass_cmd_sets_dir_and_gen0B7_
FNDA:7,_RNCNvNtNtCs9svORWNbXMv_13weaveback_api6tangle5testss_33build_pass_cmd_includes_chunk_end0B7_
FNDA:5,_RNCNvNtNtCs9svORWNbXMv_13weaveback_api6tangle5testss_33build_pass_cmd_includes_chunk_ends_0B7_
FNDA:7,_RNCNvNtNtCs9svORWNbXMv_13weaveback_api6tangle5testss_39build_pass_cmd_includes_comment_markers0B7_
FNDA:5,_RNCNvNtNtCs9svORWNbXMv_13weaveback_api6tangle5testss_39build_pass_cmd_includes_comment_markerss_0B7_
FNDA:9,_RNCNvNtNtCs9svORWNbXMv_13weaveback_api6tangle5testss_39build_pass_cmd_includes_multiple_sigils0B7_
FNDA:2,_RNCNvNtNtCs9svORWNbXMv_13weaveback_api6tangle5testss_39build_pass_cmd_includes_multiple_sigilss0_0B7_
FNDA:8,_RNCNvNtNtCs9svORWNbXMv_13weaveback_api6tangle5testss_39build_pass_cmd_includes_multiple_sigilss_0B7_
FNDA:5,_RNCNvNtNtCs9svORWNbXMv_13weaveback_api6tangle5testss_39build_pass_cmd_uses_output_dir_when_set0B7_
FNDA:4,_RNCNvNtNtCs9svORWNbXMv_13weaveback_api6tangle5testss_39build_pass_cmd_uses_output_dir_when_sets0_0B7_
FNDA:3,_RNCNvNtNtCs9svORWNbXMv_13weaveback_api6tangle5testss_39build_pass_cmd_uses_output_dir_when_sets_0B7_
FNDA:11,_RNCNvNtNtCs9svORWNbXMv_13weaveback_api6tangle5testss_40build_pass_cmd_adds_force_generated_flag0B7_
FNDA:1,_RNvNtNtCs9svORWNbXMv_13weaveback_api6tangle5testss_30tangle_cfg_parses_tags_section
FNDA:1,_RNvNtNtCs9svORWNbXMv_13weaveback_api6tangle5testss_31build_pass_cmd_sets_dir_and_gen
FNDA:1,_RNvNtNtCs9svORWNbXMv_13weaveback_api6tangle5testss_31tangle_cfg_roundtrips_from_toml
FNDA:1,_RNvNtNtCs9svORWNbXMv_13weaveback_api6tangle5testss_32default_tags_values_are_sensible
FNDA:1,_RNvNtNtCs9svORWNbXMv_13weaveback_api6tangle5testss_33build_pass_cmd_includes_chunk_end
FNDA:1,_RNvNtNtCs9svORWNbXMv_13weaveback_api6tangle5testss_33run_tangle_all_errors_on_bad_toml
FNDA:1,_RNvNtNtCs9svORWNbXMv_13weaveback_api6tangle5testss_33test_tangle_cfg_parses_embeddings
FNDA:1,_RNvNtNtCs9svORWNbXMv_13weaveback_api6tangle5testss_38test_run_tangle_all_db_open_error_path
FNDA:1,_RNvNtNtCs9svORWNbXMv_13weaveback_api6tangle5testss_39build_pass_cmd_includes_comment_markers
FNDA:1,_RNvNtNtCs9svORWNbXMv_13weaveback_api6tangle5testss_39build_pass_cmd_includes_multiple_sigils
FNDA:1,_RNvNtNtCs9svORWNbXMv_13weaveback_api6tangle5testss_39build_pass_cmd_uses_output_dir_when_set
FNDA:1,_RNvNtNtCs9svORWNbXMv_13weaveback_api6tangle5testss_39run_tangle_all_errors_on_missing_config
FNDA:1,_RNvNtNtCs9svORWNbXMv_13weaveback_api6tangle5testss_39test_run_tangle_all_fails_if_pass_fails
FNDA:1,_RNvNtNtCs9svORWNbXMv_13weaveback_api6tangle5testss_40build_pass_cmd_adds_force_generated_flag
FNDA:1,_RNvNtNtCs9svORWNbXMv_13weaveback_api6tangle5testss_41tangle_cfg_tags_uses_defaults_when_absent
FNDA:1,_RNvNtNtCs9svORWNbXMv_13weaveback_api6tangle5testss_43test_run_tangle_all_with_db_post_processing
FNDA:7,_RNvNtCs9svORWNbXMv_13weaveback_api6tangle14build_pass_cmd
FNDA:5,_RNvNtCs9svORWNbXMv_13weaveback_api6tangle14run_tangle_all
FNDA:3,_RNvNtCs9svORWNbXMv_13weaveback_api6tangle18default_tags_model
FNDA:3,_RNvNtCs9svORWNbXMv_13weaveback_api6tangle20default_tags_backend
FNDA:4,_RNvNtCs9svORWNbXMv_13weaveback_api6tangle23default_tags_batch_size
FNDA:1,_RNCNvNtCs9svORWNbXMv_13weaveback_api6tangle14run_tangle_all0B5_
FNDA:3,_RNCNvNtCs9svORWNbXMv_13weaveback_api6tangle14run_tangle_alls_0B5_
FNF:35
FNH:35
DA:34,3
DA:35,3
DA:36,4
DA:63,7
DA:64,7
DA:65,7
DA:66,7
DA:67,7
DA:68,7
DA:69,7
DA:70,7
DA:71,7
DA:72,7
DA:73,1
DA:74,6
DA:75,7
DA:76,1
DA:77,6
DA:78,7
DA:79,1
DA:80,6
DA:81,7
DA:82,1
DA:83,6
DA:84,7
DA:85,1
DA:86,6
DA:87,7
DA:88,1
DA:89,6
DA:90,7
DA:91,1
DA:92,6
DA:93,7
DA:94,2
DA:95,2
DA:96,7
DA:97,7
DA:98,7
DA:103,5
DA:104,5
DA:105,5
DA:106,5
DA:107,5
DA:108,5
DA:109,1
DA:110,4
DA:111,4
DA:112,3
DA:114,1
DA:115,1
DA:117,1
DA:118,1
DA:119,1
DA:120,0
DA:121,0
DA:123,1
DA:124,1
DA:125,1
DA:126,1
DA:127,1
DA:129,0
DA:133,0
DA:134,0
DA:135,0
DA:136,0
DA:137,0
DA:138,0
DA:139,0
DA:140,0
DA:141,0
DA:142,0
DA:143,0
DA:144,0
DA:145,0
DA:146,0
DA:147,0
DA:148,0
DA:149,0
DA:150,0
DA:151,0
DA:152,0
DA:153,0
DA:154,0
DA:155,0
DA:157,0
DA:159,0
DA:160,0
DA:161,5
DA:168,1
DA:169,1
DA:170,1
DA:171,1
DA:172,1
DA:173,1
DA:174,1
DA:175,1
DA:176,1
DA:177,1
DA:178,1
DA:179,1
DA:180,1
DA:181,1
DA:182,1
DA:183,1
DA:186,1
DA:188,7
DA:189,1
DA:190,1
DA:191,1
DA:192,1
DA:193,1
DA:194,1
DA:197,1
DA:198,1
DA:199,1
DA:200,1
DA:201,1
DA:202,1
DA:203,1
DA:204,1
DA:205,1
DA:206,1
DA:207,1
DA:208,1
DA:209,1
DA:210,1
DA:211,1
DA:212,1
DA:215,1
DA:216,11
DA:217,1
DA:218,1
DA:219,1
DA:220,1
DA:221,1
DA:224,1
DA:225,1
DA:226,1
DA:227,1
DA:228,1
DA:229,1
DA:230,1
DA:231,1
DA:232,1
DA:233,1
DA:234,1
DA:235,1
DA:236,1
DA:237,1
DA:238,1
DA:239,1
DA:240,1
DA:241,1
DA:244,1
DA:245,1
DA:246,1
DA:247,1
DA:248,1
DA:249,1
DA:252,1
DA:253,1
DA:254,1
DA:255,1
DA:256,1
DA:257,1
DA:258,1
DA:261,1
DA:262,1
DA:263,1
DA:264,1
DA:265,1
DA:266,1
DA:267,1
DA:268,1
DA:269,1
DA:270,1
DA:271,1
DA:272,1
DA:273,1
DA:274,7
DA:275,5
DA:276,1
DA:279,1
DA:280,1
DA:281,1
DA:282,1
DA:283,1
DA:284,1
DA:285,1
DA:286,1
DA:287,1
DA:288,1
DA:289,1
DA:290,1
DA:291,1
DA:292,7
DA:293,5
DA:294,1
DA:297,1
DA:298,1
DA:299,1
DA:300,1
DA:301,1
DA:302,1
DA:303,1
DA:304,1
DA:305,1
DA:306,1
DA:307,1
DA:308,1
DA:309,1
DA:310,9
DA:311,1
DA:312,8
DA:313,2
DA:314,1
DA:315,1
DA:316,1
DA:317,1
DA:320,1
DA:321,1
DA:322,1
DA:323,1
DA:324,1
DA:325,1
DA:326,1
DA:327,1
DA:328,1
DA:329,1
DA:330,1
DA:331,1
DA:332,1
DA:333,5
DA:335,3
DA:336,4
DA:337,1
DA:340,1
DA:341,1
DA:342,1
DA:343,1
DA:344,1
DA:347,1
DA:348,1
DA:349,1
DA:350,1
DA:351,1
DA:352,1
DA:353,1
DA:354,1
DA:355,1
DA:356,1
DA:357,1
DA:358,1
DA:359,1
DA:360,1
DA:361,1
DA:362,1
DA:365,1
DA:366,1
DA:367,1
DA:368,1
DA:369,1
DA:370,1
DA:371,1
DA:372,1
DA:375,1
DA:376,1
DA:377,1
DA:378,1
DA:381,1
DA:382,1
DA:383,1
DA:385,1
DA:386,1
DA:387,1
DA:388,1
DA:389,1
DA:390,1
DA:391,1
DA:392,1
DA:393,1
DA:394,1
DA:395,1
DA:396,1
DA:397,1
DA:405,1
DA:406,1
DA:409,1
DA:410,1
DA:411,1
DA:412,1
DA:413,1
DA:414,1
DA:415,1
DA:417,1
DA:419,1
DA:420,1
DA:423,1
DA:424,1
DA:425,1
DA:427,1
DA:429,1
DA:430,1
DA:432,1
DA:433,1
DA:438,1
DA:439,1
DA:441,1
DA:442,1
DA:445,1
DA:446,1
DA:447,1
DA:448,1
DA:449,1
DA:450,1
DA:451,1
DA:452,1
DA:453,1
DA:454,1
DA:455,1
DA:456,1
DA:457,1
DA:458,1
DA:461,1
DA:462,1
DA:463,1
DA:465,1
DA:466,1
DA:468,1
DA:472,1
DA:473,1
BRF:0
BRH:0
LF:348
LH:319
end_of_record